Archive member included because of file (symbol)

D:\ToolChain3\arm-none-eabi\lib\thumb2\libm.a(lib_a-s_cos.o)
                              three.o (cos)
D:\ToolChain3\arm-none-eabi\lib\thumb2\libm.a(lib_a-s_floor.o)
                              three.o (floor)
D:\ToolChain3\arm-none-eabi\lib\thumb2\libm.a(lib_a-s_modf.o)
                              three.o (modf)
D:\ToolChain3\arm-none-eabi\lib\thumb2\libm.a(lib_a-s_sin.o)
                              three.o (sin)
D:\ToolChain3\arm-none-eabi\lib\thumb2\libm.a(lib_a-w_sqrt.o)
                              three.o (sqrt)
D:\ToolChain3\arm-none-eabi\lib\thumb2\libm.a(lib_a-wf_exp.o)
                              three.o (expf)
D:\ToolChain3\arm-none-eabi\lib\thumb2\libm.a(lib_a-e_rem_pio2.o)
                              D:\ToolChain3\arm-none-eabi\lib\thumb2\libm.a(lib_a-s_cos.o) (__ieee754_rem_pio2)
D:\ToolChain3\arm-none-eabi\lib\thumb2\libm.a(lib_a-e_sqrt.o)
                              D:\ToolChain3\arm-none-eabi\lib\thumb2\libm.a(lib_a-w_sqrt.o) (__ieee754_sqrt)
D:\ToolChain3\arm-none-eabi\lib\thumb2\libm.a(lib_a-ef_exp.o)
                              D:\ToolChain3\arm-none-eabi\lib\thumb2\libm.a(lib_a-wf_exp.o) (__ieee754_expf)
D:\ToolChain3\arm-none-eabi\lib\thumb2\libm.a(lib_a-k_cos.o)
                              D:\ToolChain3\arm-none-eabi\lib\thumb2\libm.a(lib_a-s_cos.o) (__kernel_cos)
D:\ToolChain3\arm-none-eabi\lib\thumb2\libm.a(lib_a-k_rem_pio2.o)
                              D:\ToolChain3\arm-none-eabi\lib\thumb2\libm.a(lib_a-e_rem_pio2.o) (__kernel_rem_pio2)
D:\ToolChain3\arm-none-eabi\lib\thumb2\libm.a(lib_a-k_sin.o)
                              D:\ToolChain3\arm-none-eabi\lib\thumb2\libm.a(lib_a-s_cos.o) (__kernel_sin)
D:\ToolChain3\arm-none-eabi\lib\thumb2\libm.a(lib_a-s_fabs.o)
                              D:\ToolChain3\arm-none-eabi\lib\thumb2\libm.a(lib_a-e_rem_pio2.o) (fabs)
D:\ToolChain3\arm-none-eabi\lib\thumb2\libm.a(lib_a-s_fpclassify.o)
                              D:\ToolChain3\arm-none-eabi\lib\thumb2\libm.a(lib_a-w_sqrt.o) (__fpclassifyd)
D:\ToolChain3\arm-none-eabi\lib\thumb2\libm.a(lib_a-s_lib_ver.o)
                              D:\ToolChain3\arm-none-eabi\lib\thumb2\libm.a(lib_a-w_sqrt.o) (__fdlib_version)
D:\ToolChain3\arm-none-eabi\lib\thumb2\libm.a(lib_a-s_matherr.o)
                              D:\ToolChain3\arm-none-eabi\lib\thumb2\libm.a(lib_a-w_sqrt.o) (matherr)
D:\ToolChain3\arm-none-eabi\lib\thumb2\libm.a(lib_a-s_scalbn.o)
                              D:\ToolChain3\arm-none-eabi\lib\thumb2\libm.a(lib_a-k_rem_pio2.o) (scalbn)
D:\ToolChain3\arm-none-eabi\lib\thumb2\libm.a(lib_a-sf_finite.o)
                              D:\ToolChain3\arm-none-eabi\lib\thumb2\libm.a(lib_a-wf_exp.o) (finitef)
D:\ToolChain3\arm-none-eabi\lib\thumb2\libm.a(lib_a-s_copysign.o)
                              D:\ToolChain3\arm-none-eabi\lib\thumb2\libm.a(lib_a-s_scalbn.o) (copysign)
D:\ToolChain3\arm-none-eabi\lib\thumb2\libc.a(lib_a-errno.o)
                              D:\ToolChain3\arm-none-eabi\lib\thumb2\libm.a(lib_a-w_sqrt.o) (__errno)
D:\ToolChain3\arm-none-eabi\lib\thumb2\libc.a(lib_a-impure.o)
                              D:\ToolChain3\arm-none-eabi\lib\thumb2\libc.a(lib_a-errno.o) (_impure_ptr)
D:\ToolChain3\arm-none-eabi\lib\thumb2\libc.a(lib_a-memset.o)
                              three.o (memset)
D:\ToolChain3\lib\gcc\arm-none-eabi\4.5.2\libgcc.a(_divsi3.o)
                              D:\ToolChain3\arm-none-eabi\lib\thumb2\libm.a(lib_a-k_rem_pio2.o) (__aeabi_idiv)
D:\ToolChain3\lib\gcc\arm-none-eabi\4.5.2\libgcc.a(_dvmd_tls.o)
                              D:\ToolChain3\lib\gcc\arm-none-eabi\4.5.2\libgcc.a(_divsi3.o) (__aeabi_idiv0)
D:\ToolChain3\lib\gcc\arm-none-eabi\4.5.2\libgcc.a(_arm_addsubdf3.o)
                              three.o (__aeabi_dsub)
D:\ToolChain3\lib\gcc\arm-none-eabi\4.5.2\libgcc.a(_arm_muldivdf3.o)
                              three.o (__aeabi_dmul)
D:\ToolChain3\lib\gcc\arm-none-eabi\4.5.2\libgcc.a(_arm_cmpdf2.o)
                              three.o (__aeabi_dcmpeq)
D:\ToolChain3\lib\gcc\arm-none-eabi\4.5.2\libgcc.a(_arm_fixdfsi.o)
                              three.o (__aeabi_d2iz)
D:\ToolChain3\lib\gcc\arm-none-eabi\4.5.2\libgcc.a(_arm_fixunsdfsi.o)
                              three.o (__aeabi_d2uiz)
D:\ToolChain3\lib\gcc\arm-none-eabi\4.5.2\libgcc.a(_arm_truncdfsf2.o)
                              three.o (__aeabi_d2f)
D:\ToolChain3\lib\gcc\arm-none-eabi\4.5.2\libgcc.a(_arm_addsubsf3.o)
                              D:\ToolChain3\arm-none-eabi\lib\thumb2\libm.a(lib_a-ef_exp.o) (__aeabi_fsub)
D:\ToolChain3\lib\gcc\arm-none-eabi\4.5.2\libgcc.a(_arm_muldivsf3.o)
                              D:\ToolChain3\arm-none-eabi\lib\thumb2\libm.a(lib_a-ef_exp.o) (__aeabi_fmul)
D:\ToolChain3\lib\gcc\arm-none-eabi\4.5.2\libgcc.a(_arm_cmpsf2.o)
                              D:\ToolChain3\arm-none-eabi\lib\thumb2\libm.a(lib_a-wf_exp.o) (__aeabi_fcmplt)
D:\ToolChain3\lib\gcc\arm-none-eabi\4.5.2\libgcc.a(_arm_fixsfsi.o)
                              D:\ToolChain3\arm-none-eabi\lib\thumb2\libm.a(lib_a-ef_exp.o) (__aeabi_f2iz)

Allocating common symbols
Common symbol       size              file

ASCII_counter1      0x2               three.o
RXD_STX_F1          0x2               three.o
EnableScrSvrPass    0x1               three.o
FirstLoopGlobleTask
                    0x1               three.o
FrameCount2         0x1               three.o
fltbarval           0x4               three.o
TXFrameEnd1         0x1               three.o
NewFrame1           0x1               three.o
Needle_pivot_x      0x2               three.o
digit               0x28              three.o
GetIBMID2           0x1               three.o
HideData            0x1               three.o
dyabs               0x2               three.o
RXD_COMTD_BIT2      0x2               three.o
BGCMDQ1             0xc8              three.o
RxEnableBit1        0x2               three.o
fptr                0x4               three.o
WaitTillFlag        0x1               three.o
FailedNodeCnt2      0x1               three.o
Port8BlockCount     0x2               three.o
Port5BlockCount     0x2               three.o
Value_Interframe_Delay1
                    0x2               three.o
PressEvent          0x1               three.o
PID_Enablebit       0x2               three.o
PrizmPort2Addr      0x4               three.o
var5                0x4               three.o
SPL_PLC_TASK        0x1               three.o
StatusByte1         0x1               three.o
tskcd_lo            0x1               three.o
Protocol2           0x1               three.o
ListOfBlocksPort1   0x40              three.o
AddrReadBytePort1   0x4               three.o
DisplayTextColor    0x1               three.o
cury                0x2               three.o
yyy                 0x2               three.o
NumOfBlocks         0x1               three.o
ObjCnt              0x1               three.o
FGStringLength1     0x4               three.o
PLC4Tag             0x1               three.o
dat                 0x1               three.o
TempIntrPort1       0x1               three.o
NoOfNodes           0x1               three.o
Port1Var4           0x2               three.o
RESET_FLAG          0x1               three.o
del                 0x4               three.o
AlarmRecordCounter  0x2               three.o
actualAngle         0x4               three.o
SpShPtr1            0x4               ASCIIComm.o
Tcount              0x4               three.o
Alarmpage           0x1               three.o
ModbusCoil1         0x1               three.o
DontShiftCmdQ2      0x1               three.o
ExpPtr              0x4               three.o
TextFont            0x1               three.o
WriteError2         0x1               three.o
KeyBottomY          0x2               three.o
TimeSpan1           0x1               three.o
SendModSlaveFrame2  0x1               three.o
ReadKey             0x2               three.o
textlength          0x1               three.o
x2_loc              0x2               two.o
NumericASCII_decimal_pt
                    0x1               three.o
Curr_Flash_Alarm_Ptr
                    0x4               three.o
DataLoggingInProcess2
                    0x1               three.o
mcg_clk_hz          0x4               three.o
MemRead             0x4               two.o
TempTxAddr2         0x2               three.o
Enable_Control      0x1               three.o
Signature1          0x2               three.o
D_E_obj_no          0x1               three.o
Micro_RTC_count     0x1               three.o
StartingAddr1       0xf               three.o
TagTable3           0x0               three.o
Max_RecCntGlob2     0x4               three.o
BackupMemoryFull    0x1               three.o
AnimationBytes      0x1               three.o
MaxValue            0x4               three.o
MW_Reg_OffsetTimerInt
                    0x4               three.o
rows                0x1               two.o
BGTaskPtr_W3        0x4               three.o
core_clk_mhz        0x4               three.o
Plc1Dat1Lo          0x1               three.o
Micro_RTC_FAIL      0x4               three.o
DisplayAreaFont     0x1               three.o
XVAL2               0x2               three.o
PID_Blocks          0x1               three.o
MediumFlash         0x1               three.o
ObjPtr              0x4               three.o
ReadRequest2        0x1               three.o
SrcTagPort          0x1               three.o
ScrSvrDelay         0x2               three.o
Port2NodeAddr       0x20              three.o
Result              0x1               three.o
RightRange          0x1               three.o
PrizmPort1Addr      0x4               three.o
y1_sav              0x2               three.o
PrizmSizeCode2      0x1               three.o
two_b_sqr           0x4               three.o
Rate_Timer_Elapse_Flag
                    0x1               three.o
Total_CRC           0x1               three.o
FlashRate           0x2               three.o
NoBitmap            0x1               three.o
integer             0x8               three.o
preset_flag         0x1e              three.o
Direction           0x1               three.o
AttachDone2         0x1               three.o
BeforeDelayTaskLoc  0x4               three.o
BGStatusBit1        0x1               three.o
reg_hi_hi           0x1               three.o
StartComm2          0x1               three.o
HSPWM_Prev_Freq     0x4               three.o
altxtlen            0x1               three.o
TagCount1           0x4               three.o
x_2                 0x1               three.o
D_E_ObjType         0x1               three.o
Alarmsort           0x1               three.o
WritingCMDQ3        0x1               three.o
RTC_Recipe_Delay_Port1
                    0x1               three.o
WritingCMDQ2        0x1               three.o
ScrSvrEnbl          0x1               three.o
bit_pos             0x1               three.o
Delay_1ms           0x1               three.o
Ilc0                0x4               three.o
iterm               0x30              three.o
DwordIntFormatPort2
                    0x1               three.o
TagPresent          0x1               three.o
PLCRegAddr_num      0x4               three.o
flg1sec             0x1               three.o
NodeIsFailed1       0x1               three.o
RxStartAdd2         0x2               three.o
pix_hi_low          0x1               three.o
BroadCastBlocks2    0x4               three.o
Access_Counter      0x4               three.o
y_num               0x2               three.o
Del100mSDun         0x1               three.o
DelayAfterBreakCount2
                    0x1               three.o
Plc1Dat2Lo          0x1               three.o
PrevWaitTillFlag    0x4               three.o
Xbv2                0x2               three.o
RecipeStrFG2        0x46              three.o
BGTaskCommandSent1  0x1               three.o
obj_no              0x2               three.o
ValidData           0x1               three.o
TXD_NoOfETXBytes1   0x2               three.o
key_end_loc         0x4               three.o
j                   0x2               three.o
Global_no_of_pressed_task
                    0x2               three.o
RetCntOverRunError1_W
                    0x1               three.o
RUN_STOP            0x1               three.o
byt_sent            0x1               three.o
x                   0x2               three.o
SerialFlashSem      0x1               three.o
BGRegLength1        0x1               three.o
Printing_Pending    0x1               three.o
AttachFailedNodesCnt1
                    0x4               three.o
LocalReleasedTaskBytes
                    0x2               three.o
NodePresentOnPort2  0x1               three.o
FunCode2            0x1               three.o
TXDClearCount2      0x1               three.o
CMDQ2_TagNamePointer
                    0x4               three.o
alarmchange         0x1               three.o
TagErrorFlag1       0x1               three.o
RXD_ETX_F2          0x2               three.o
temp_reg_no         0x4               three.o
RecipeCntr2         0x4               three.o
RTC_To_PLC          0x8               three.o
Xoffset2            0x2               three.o
RXD_After_break2    0x2               three.o
PrevRxState2        0x1               three.o
ByteFormatPort4     0x1               three.o
Enable_Focus_Static_DataEntry
                    0x1               three.o
ExpBlockCount       0x4               three.o
off_txt_length      0x1               three.o
ModbusNoOfReg2      0x1               three.o
GetResponse2        0x1               three.o
line_prev_x1        0xfe              three.o
RXD_ETX_ARRAY1      0x5               three.o
RXD_NoOfSTXBytes1   0x2               three.o
n                   0x2               three.o
GlobalTempPointer   0x4               three.o
Protocol3           0x1               three.o
RecCmdExec2         0x1               three.o
coord               0x8               three.o
Port1NodeAddr       0x20              three.o
Parity1             0x1               three.o
RecipeRTC2          0x200             three.o
SendBroadCastCmd1   0x1               three.o
ProcessSerialStack  0x1               three.o
PlcDat1Lo           0x1               three.o
RecTaskCommandSent2
                    0x1               three.o
NodeAttached3       0x4               three.o
Plc1Comm            0x1               three.o
off_lo              0x1               three.o
LogInfo             0x70              three.o
reg_no              0x4               three.o
Drv2Del1S           0x2               three.o
DataEntrypobj_no    0x2               three.o
WD_Feed_Sequence_Incomplete
                    0x1               three.o
ind_addr_tag_4      0x1               three.o
pterm               0x30              three.o
WaitDelayFlag       0x1               three.o
PID_OPR_B           0x4               three.o
RecipeCount2        0x4               three.o
bval                0x2               three.o
TXDClearFlag1       0x1               three.o
ExpConnCnt          0x1               three.o
y_2                 0x1               three.o
StopModeMessageDisplayed
                    0x1               three.o
maskbyte            0x1               three.o
DelayAfterBreakCount1
                    0x1               three.o
PopupDataEntry      0x1               three.o
StartingAddr        0xf               three.o
ConnectToExp        0x1               three.o
GeFlag2             0x1               three.o
RateVal             0x14              three.o
ClearASCIIString    0x1               three.o
HaltModeMessageDisplayed
                    0x1               three.o
RetentiveSize_Timer
                    0x2               three.o
GlobalPressTaskBytes
                    0x2               three.o
TempTxBytes1        0x2               three.o
Print               0x1               three.o
GlobalPressedTaskBytes
                    0x2               three.o
ScreenIntrPtr       0x4               three.o
Config_MW_Reg_Write_Bit
                    0xc8              three.o
ExpRetryCount       0x1               three.o
Wait_Till_Task_Present
                    0x4               three.o
Usb_Frame_No        0x1               three.o
RecipeBlockLen1     0x4               three.o
HiAddr              0x1               three.o
Max_RecCntWhile2    0x4               three.o
Max_RecCntGlob1     0x4               three.o
UsbDownloadRestartFlag
                    0x1               three.o
sign_flag           0x1               three.o
DriverNum2          0x4               three.o
task_byte           0x1               three.o
SkipGlobalTask2     0x1               three.o
Yav2                0x2               three.o
MPIonComm1          0x1               three.o
ScreenChangePort3   0x1               three.o
ZeroScrnfrscrnsvr   0x1               three.o
ERROR_MODE_ENTRY    0x1               three.o
TXD_NoOfSTXBytes1   0x2               three.o
Retry_Count1        0x2               three.o
HI                  0x1               three.o
ColorAnimation      0x1               three.o
FastFlash           0x1               three.o
KeyY                0x2               three.o
RXD_STX_ARRAY1      0x5               three.o
PrevFrameLength1    0x1               three.o
PowerOnGlobal3      0x1               three.o
HSPWM_RunBit        0x1               three.o
MPIBlockRead        0x1               three.o
PrevYdb             0x4               three.o
x1_loc              0x2               two.o
LinePosTag          0x1               three.o
Serial_Com2Int      0x1               three.o
Prevalarmpos        0x1               three.o
no_of_digit         0x2               three.o
ListOfBlocksPort2   0x40              three.o
PrevRxState1        0x1               three.o
BGCMDQ2             0xc8              three.o
Prevmonth           0x1               three.o
Prevmin             0x1               three.o
ReadAsciiData2      0x46              three.o
ScreenTobLoad       0x4               three.o
F3_Touched          0x1               three.o
Prev_PID_Enablebit  0x2               three.o
Dec_Cursor          0x1               three.o
PrizmCoil2          0x1               three.o
Data_Download_Mode  0x1               three.o
TagCount2           0x4               three.o
BGTask1             0x180             three.o
RTC_Recipe_Delay_Flag
                    0x1               three.o
PrevNodeIntr        0x1               three.o
DecimalPt           0x1               three.o
Port1Plc            0x6               three.o
COL_COM             0x1               three.o
Sys_PLC1            0x1               three.o
SpecialEagleDriver1
                    0x1               three.o
grpno               0x1               three.o
Del500mSDun         0x1               three.o
Port3IsSlave        0x1               three.o
TempCount1Port1     0x1               three.o
PressedEvent        0x1               three.o
ExpBlockPtr         0x4               three.o
aval                0x2               three.o
RXD_NoOfETXBytes2   0x2               three.o
prevlanguage        0x1               three.o
StopBit2            0x1               three.o
Max_BGTaskPtr_W1    0x4               three.o
ScreenBlocksFinished2
                    0x1               three.o
core_clk_khz        0x4               three.o
ByteToBeSend2       0x1               three.o
NodeAddCount2       0x1               three.o
Datalength          0x4               three.o
RecipeLen1          0x4               three.o
Del1S               0x2               three.o
FirstDataByte2      0x1               three.o
HighLimit           0x2               three.o
firstalno           0x1               three.o
ReturnFrmScrnSvr    0x1               three.o
ROW_BY              0x1               three.o
RECIPE_TYPE2        0x1               three.o
Flashsize           0x1               three.o
format              0x1               three.o
ModbusSlave2        0x1               three.o
BlockNo             0x2               three.o
GlobalBlockCntr2    0x1               three.o
Max_BGTaskPtr_W3    0x4               three.o
font                0x1               two.o
ASA_Byte_RXD1       0x2               three.o
y1_loc              0x2               two.o
NoOfBytes           0x2               three.o
LO                  0x1               three.o
TXD_CRCSelection1   0x2               three.o
DownloadCount       0x2               three.o
BitOperation        0x1               three.o
ASCII_D_E_Buff      0xff              three.o
Trendclr            0x1               three.o
next_prev_flag      0x1               three.o
AddrPort1Byte       0x4               three.o
IbmDelCount2        0x2               three.o
D_E_SignData        0x1               three.o
WithinOrOutside     0x1               three.o
IBMFlag2            0x1               three.o
PlcDat2Hi           0x1               three.o
RetryCount2         0x1               three.o
CopyTagSTR_InGlobal_Ptr
                    0x4               three.o
dxabs               0x2               three.o
Bkcolor             0x2               three.o
TXD_NoOfETXBytes2   0x2               three.o
f1ptr               0x4               three.o
DnCoil              0x10              three.o
ackalrm             0x1               three.o
EXP_CMDQ1           0x32              three.o
SendModRespFromMainLoop1
                    0x1               three.o
HistTotalNoOfClms   0x1               three.o
Rate_Counter_Elapse_Flag
                    0x1               three.o
DEDataType          0x2               three.o
Drv1Del1S           0x2               three.o
fill_factor         0x4               three.o
DYVtg2              0x2               three.o
AttachDone1         0x1               three.o
DontIncrementMessageID2
                    0x1               three.o
AlarmNo             0x10              three.o
ADFrame             0x1               three.o
Languagechange      0x1               three.o
ERROR_CODE          0x1               three.o
LED_3               0x1               three.o
RXD_CRCSelection1   0x2               three.o
BuffCount           0x1               three.o
PrevTransmitEnableBit1
                    0x1               ASCIIComm.o
D_E_HideData        0x1               three.o
dwTempGlobal        0x4               three.o
Global_no_of_press_task
                    0x2               three.o
DownloadCount1      0x2               three.o
HSPWM_Channel_Config
                    0x1               three.o
groups              0x1               three.o
hor_rad             0x8               three.o
Lable               0x1               three.o
four_b_sqr          0x4               three.o
textmask1           0x1               three.o
RECIPETASK_Status2  0x1               three.o
Value_Slient_STX_Time2
                    0x2               three.o
tagvalue            0x4               three.o
FontMultiX          0x1               three.o
Bumpless_Transfer   0x2               three.o
ty2                 0x2               three.o
UpdateTab           0x1               three.o
datatype            0x1               three.o
Del250mSDun         0x1               three.o
Port2IsSlave        0x1               three.o
InValKey            0x1               three.o
ByteFormatPort1     0x1               three.o
PrintingData1       0x1               three.o
STR_0               0x2               three.o
Micro_RTC_OP_HOUR   0x4               three.o
FrameEnd2           0x1               three.o
PID2_OPR_B          0x4               three.o
TagStatus1          0x20              three.o
bit1                0x1               three.o
TXD_STX_ARRAY2      0x5               three.o
CAL_BUFF            0x4               Product_Info.o
Parity2             0x1               three.o
DownloadFlag        0x1               three.o
TxOutputBit1        0x2               three.o
ind_addr_tag_2      0x1               three.o
Data_Entry_Obj_Cnt  0x1               three.o
CurrRxState1        0x1               three.o
LedState_OP3        0x1               three.o
x2_sav              0x2               three.o
NodeIntrPort1       0x1               three.o
SendCntr2           0x2               three.o
Response_Bit2       0x2               three.o
Exp                 0x6               three.o
HiLow1              0x1               ASCIIComm.o
HSPWM_Channel2_NoOfPulses
                    0x4               three.o
FunCode1            0x1               three.o
PrevSignData        0x80              three.o
ScreenIntrPtrPort1  0x4               three.o
CommTimeOut1        0x1               three.o
PrevKey2            0x2               three.o
IbmDelCount1        0x2               three.o
PLCTag              0x1               three.o
FailedNodeCnt1      0x1               three.o
TxOutputBit2        0x2               three.o
ScnSvrbaklitOff     0x1               three.o
PopupTopy           0x2               three.o
DestTagPort         0x1               three.o
TXD_Checksum_method2
                    0x2               three.o
BGTaskExec1         0x1               three.o
Redrawing           0x1               three.o
ExpListOfBlocks     0x4               three.o
Link                0x1               three.o
TempTxAddr1         0x2               three.o
RegLengthInCMDQ2    0x1               three.o
Tag_no              0x4               three.o
Time5msec           0x2               three.o
PLCOnPort2          0x4               three.o
SendBroadCastCmd2   0x1               three.o
LastScreen          0x2               three.o
NamePointer1        0x4               three.o
LedState_OP6        0x1               three.o
Flash               0x1               three.o
cnt                 0x2               three.o
Border              0x1               three.o
PortIntr            0x1               three.o
RespNok2            0x1               three.o
RetentiveSize_BW_Reg
                    0x2               three.o
y_1                 0x1               three.o
Length2Received     0x1               three.o
WriteCount1         0x1               three.o
position            0x1               three.o
X1Loc               0x1               two.o
TagTableUpdated3    0x1               three.o
Delay5_sec_flag     0x1               three.o
LogDataPrintBuff    0x1               three.o
KeyPressed1         0x1               three.o
NoOfBits1           0x1               three.o
PpupDEOn            0x1               three.o
BGTASK_Status2      0x1               three.o
NoOfBits2           0x1               three.o
ty1                 0x2               three.o
Micro_RTC_YEAR      0x4               three.o
SQRT_ptr            0x4               three.o
DelayFlag           0x1               three.o
RetCntOverRunError2_W
                    0x1               three.o
passtx1             0x2               three.o
CurrBlockInPort2    0x2               three.o
reg_hi_lo           0x1               three.o
passbgcolor         0x2               three.o
LCD_Buff            0x400             two.o
PowerOnAttach1      0x1               three.o
RecCntWhile1        0x4               three.o
Device_Info_Buffer  0x40              three.o
ScreenChangePort1   0x1               three.o
NumOfBytesPort1     0x1               three.o
RCntPort1           0x1               three.o
RTC_OFFSET1         0x1               three.o
Alarmgrp            0x8               three.o
Hist_Severity       0x1               three.o
F2_Touched          0x1               three.o
Prevsec             0x1               three.o
PrevCharState       0x40              three.o
CMDQ4               0x2               three.o
ver_rad             0x8               three.o
Returnfrmscrsvr     0x1               three.o
HistAlarm_X_EdgeLimit
                    0x2               three.o
xxx                 0x2               three.o
Value_RXD_After_break1
                    0x2               three.o
Port2BlockCount     0x2               three.o
Newdraw             0x1               three.o
DisplayBitmap       0x1               three.o
Restore_screen_ptr  0x4               three.o
Temp                0x1               three.o
flashscrollspeed    0x1               three.o
BroadCastEnable2    0x1               three.o
TXD_COMTD_BIT1      0x2               three.o
Micro_RTC_ANS_SECOND
                    0x4               three.o
PrevKey1            0x2               three.o
RecFrameLength1     0x2               three.o
ExtRecordCounter    0x2               three.o
ExpTagStatus        0x0               three.o
Prevyear            0x1               three.o
PrizmPort4Addr      0x1               three.o
NodeType            0x1               three.o
ExpPortErrorStatus  0x0               three.o
Loggroups           0x1               three.o
PageSel             0x1               two.o
Xpv2                0x2               three.o
FrameProcessTime    0x4               three.o
MELSEC_Port1_Info   0x40              three.o
l                   0x2               three.o
k                   0x2               three.o
language            0x1               three.o
msg                 0x4               three.o
Sampling_time       0x18              three.o
RxEnabled1          0x1               three.o
NodePointer         0x2               three.o
StartRTC            0x1               three.o
AlarmPointer        0x4               three.o
Fi                  0x4               two.o
periph_clk_khz      0x4               three.o
GetIBMID1           0x1               three.o
AttachFailedNodesCnt2
                    0x4               three.o
ModbusCoil3         0x0               three.o
Style               0x1               three.o
FailedNodeAddr2     0x1               three.o
FrameNotCompleted2  0x1               three.o
PrevPlcError        0x40              three.o
Micro_RTC_OP_MONTH  0x4               three.o
var1                0x4               three.o
HOLD_Previous_PLC_Mode
                    0x1               three.o
BroadCastModbusTag2
                    0x1               three.o
Focus               0x1               three.o
comp1               0x1               three.o
Y                   0x2               three.o
Logdata_ptr         0x4               three.o
temp                0x1               three.o
PutInMonitorMode1   0x1               three.o
TempPtr1            0x4               ASCIIComm.o
BGTaskCount3        0x4               three.o
Plc2Present         0x1               three.o
BGNodeAddr          0x1               three.o
WritePlc2           0x1               three.o
tag_bytes           0x2               three.o
Sys_Print1          0x1               three.o
loc_y               0x2               three.o
NumericASCII_Int    0xa               three.o
UpperCase           0x1               three.o
CommandReqPort1     0x1               three.o
FHWT_KEYPAD_TEST    0x1               three.o
PrizmTagAddress2    0x4               three.o
temp_hi             0x4               three.o
HiLow2              0x1               ASCIIComm.o
bit_cntr            0x2               three.o
comp                0x1               three.o
CurrRxState2        0x1               three.o
EXP_TIMEOUT_CNT     0x1               three.o
BufferFullAction    0x1               three.o
COL_UNIT            0x1               three.o
Alarm_X_EdgeLimit   0x2               three.o
dispdata            0x1               three.o
WritePtr            0x1               three.o
Sign_Zero           0x1               three.o
Read_Write          0x1               three.o
ExpNodeAddr         0x1               three.o
PLC2Tag             0x1               three.o
RecTaskPtr1         0x4               three.o
PLCTagAddress1      0xf               three.o
AnaModel            0x1               Product_Info.o
ModbusMultipleWrite2
                    0x4               three.o
Value_Response_Time2
                    0x2               three.o
PLCTagAddress2      0xf               three.o
ModSlaveReset1      0x1               three.o
DYPix2              0x2               three.o
TempFlag1           0x1               three.o
CommTimeOut3        0x1               three.o
topleft_x           0x2               three.o
Del250mS            0x1               three.o
passty1             0x2               three.o
bgcolor             0x1               three.o
Port4GlobalBlockCount
                    0x2               three.o
ScrSvrAck           0x1               three.o
RXD_No_Bytes2       0x2               three.o
tagvaluefloat       0x4               three.o
SamplingTime_Enablebit
                    0x2               three.o
BroadCastBlockType2
                    0x1               three.o
DXPix2              0x2               three.o
Parity_Addr_local_buff2
                    0x4               three.o
Configure_Query_No  0x1               three.o
DataEntry_obj_ptr   0x4               three.o
readLSR1            0x4               three.o
ReleaseEvent        0x1               three.o
UpdateNodeStatusPort1
                    0x1               three.o
backlit             0x1               three.o
BmpMsg              0x1               three.o
BGTaskPtr_G3        0x4               three.o
Data_entry_cnt      0x1               three.o
BaudRate2           0x1               three.o
Response1Completed  0x1               three.o
ExecuteLogic        0x4               three.o
Port5GlobalBlockCount
                    0x2               three.o
RetentiveSize_Data  0x2               three.o
Crc4Lo              0x1               three.o
blanktext           0x1               three.o
TransmitEnableBit2  0x1               ASCIIComm.o
Micro_RTC_OP_MINUTE
                    0x4               three.o
RTCError            0x1               three.o
Key_ptr             0x1               three.o
TouchScreenLoopBack
                    0x1               three.o
MitMelsec_Ptr       0x4               three.o
LedState_COM1       0x1               three.o
AlarmNo_E           0x10              three.o
DummyComm2          0x1               three.o
Drv1Timeout         0x1               three.o
ScrPassword         0x2               three.o
PLCRegAddr_num2     0x4               three.o
border              0x1               three.o
ScreenBkColor       0x2               three.o
var4                0x2               three.o
Prev_PSTR           0x2               three.o
PopupCnt            0x1               three.o
S                   0x18              three.o
NodesForExp         0x1               three.o
searchpointerPort1  0x4               three.o
prev_y              0x2               three.o
LocalPressTaskBytes
                    0x2               three.o
ScrSvrTime          0x2               three.o
HistPtr             0x20              three.o
curx                0x2               three.o
Port1IsSlave        0x1               three.o
state               0x1               three.o
RCntPort2           0x1               three.o
LedState_OP2        0x1               three.o
x_1                 0x1               three.o
CMDQAttachDone1     0x1               three.o
BGTask2             0x180             three.o
_abRxBuff           0x10c             three.o
LowHigh             0x1               three.o
PlcMode1            0x1               three.o
MinValue            0x4               three.o
bcdcarry            0x1               three.o
Exp_Interbyte_Delay_Count
                    0x4               three.o
RXD_Checksum_method2
                    0x2               three.o
ASCIIStringLength   0x1               three.o
Popup               0x1               three.o
RECIPETASK_Status1  0x1               three.o
CMDQEth             0x38              three.o
Dbits_Addr_local_buff2
                    0x4               three.o
EXPInitDone         0x1               three.o
ReceiveBuffLength2  0x2               three.o
ToggleVar           0x1               three.o
ASCIIFormat         0x1               three.o
Font_ptr            0x4               two.o
TaskIgnore          0x1               three.o
Tag_count           0x2               three.o
NodePresentOnPort1  0x1               three.o
RetCntOverRunError2_R
                    0x1               three.o
ROW_COM             0x1               three.o
Screen_no           0x4               three.o
Del20mS             0x1               three.o
ScreenBlocksFinished1
                    0x1               three.o
Protocol4           0x1               three.o
TimeOut1            0x4               three.o
Micro_RTC_ANS_MINUTE
                    0x4               three.o
AttachFailedNodesCntExp
                    0x1               three.o
ScreenChangeFlag2   0x1               three.o
tskcd_hi            0x1               three.o
BroadCastModbusAdd1
                    0x4               three.o
PrevBlockSizePort1  0x1               three.o
All_Usb_Frame_Completed
                    0x1               three.o
GlobalKeyFound      0x1               three.o
Alarm_History_Buffer
                    0x18              three.o
Module_Number       0x14              three.o
number              0x1               three.o
TimerCounterFlag    0x6e              three.o
Sys_IBM             0x1               three.o
Port1ErrorStatus    0x20              three.o
temp_byt            0x1               three.o
TagTable2           0x200             three.o
Y1Loc               0x1               two.o
RxStartAdd1         0x2               three.o
InitExpansion       0x1               three.o
EXEC_PLC_ASCII2     0x1               three.o
SpRegister          0x50              three.o
RecipeStr1          0x46              three.o
ReadRequest1        0x1               three.o
Addr2BytePort1      0x4               three.o
BGStr1              0x46              three.o
WordLength          0x1               three.o
LoAddr              0x1               three.o
CurrBlock           0x2               three.o
AttachFailedNodesEnable1
                    0x1               three.o
PrevNodeAddress1    0x1               three.o
LocalRelease        0x1               three.o
SendFirstByte       0x1               three.o
WritePlc1           0x1               three.o
obj_type            0x2               three.o
ScreenType          0x1               three.o
font_size           0x1               three.o
Parity_Addr_local_buff
                    0x4               three.o
carry               0x2               three.o
CMDPtr              0x1               three.o
sdy                 0x2               three.o
Wait_for_PLCData    0x1               three.o
BGStatusBit2        0x1               three.o
PutInMonitorMode2   0x1               three.o
DummyScan           0x1               three.o
abUsbBuffer         0x44              three.o
LED_1               0x1               three.o
rem1                0x2               three.o
BGStrLen2           0x1               three.o
DataType            0x1               three.o
WritingCMDQ1        0x1               three.o
BuffCount1          0x1               three.o
StartComm1          0x1               three.o
RxNoBytes2          0x2               three.o
hor_byte            0x1               three.o
ASCII_counter2      0x2               three.o
Totaliser_Count     0x14              three.o
TagTable4           0x1               three.o
IBMRxCounter2       0x1               three.o
BGCMDQ2_Rec         0xc8              three.o
ReadDone2           0x1               three.o
BroadCastBlocks1    0x4               three.o
TaskIgnore2         0x1               three.o
KeyBottomX          0x2               three.o
ReadWrite1          0x1               three.o
Sbits_Addr_local_buff
                    0x4               three.o
sdx                 0x2               three.o
SendModSlaveFrame1  0x1               three.o
GlobalRelease       0x1               three.o
Download_Byte       0x1               three.o
FONT_UNIT           0x1               three.o
WriteCMDQAttachDone2
                    0x1               three.o
STR_1               0x2               three.o
StartDummComm1      0x1               three.o
Comm5BuffRead       0x4               three.o
alarms              0x2               three.o
IbmTimeOut1         0x1               three.o
ListOfBlocksPort4   0x4               three.o
DownloadFlag3       0x1               three.o
Signature2          0x2               three.o
screen_ptr          0x4               three.o
BroadCastBlockType1
                    0x1               three.o
AddrRead4BytePort1  0x2               three.o
se                  0x1               three.o
Host_enumerated_device
                    0x1               three.o
Global_temp_hi      0x4               three.o
Power_On_Flag       0x1               three.o
Data_entry_var      0x4               three.o
new_y               0x2               three.o
Port2PlcRegLen      0x20              three.o
SendSerialMonRespFromMainLoop1
                    0x1               three.o
BroadCastDataAdd2   0x4               three.o
CurrentRateVal      0x10              three.o
X2Loc               0x1               two.o
bottomright_y       0x2               three.o
TXDClearCount1      0x1               three.o
UpdatingBlockList   0x1               three.o
ExpScreenChange     0x1               three.o
fontlocation        0x1               three.o
wdt_counter         0x1               three.o
TotalNoHisAlmInWindow
                    0x1               three.o
coil_bit            0x2               three.o
temp1               0x1               three.o
RAMLogStart         0x4               three.o
ProductID           0x2               three.o
AnaEEPAddr          0x4               Product_Info.o
BarGraphOn          0x1               three.o
ModbusNoOfReg1      0x1               three.o
RegLenght1          0x1               three.o
Rate_Counter_Count  0x14              three.o
LoggerPointer       0x4               three.o
RegLength1          0x1               three.o
TotalNoOfClms       0x1               three.o
BGTaskDelayFlag     0x1               three.o
top_x               0x2               three.o
CMDQ1               0x32              three.o
wtaskflag           0x4               three.o
Port1Var            0x4               three.o
IBMRxCounter1       0x1               three.o
TXFrameEnd2         0x1               three.o
lead_zero_blank     0x2               three.o
FrameEnd1           0x1               three.o
RECTaskExec1        0x1               three.o
StopPrinting        0x1               three.o
ScrnsvrEnabled      0x1               three.o
Micro_RTC_op_count  0x1               three.o
KeyPressed          0x1               three.o
y2_sav              0x2               three.o
RecTaskPtr2         0x4               three.o
TmoPort2            0x4               three.o
PowerOnGlobal2      0x1               three.o
ver_byte            0x1               three.o
RecipeStrFG1        0x46              three.o
RXD_NoOfCRCBytes2   0x2               three.o
Port1BlockCount     0x2               three.o
RXD_ETX_F1          0x2               three.o
RecCntGlob3         0x4               three.o
IgnoreSampleFlag    0x1               three.o
NoOfDisplayChar     0x1               three.o
p_task              0x2               three.o
ScreenTobLoad_Ptr   0x4               three.o
NeedleValue         0x4               three.o
BGTaskCommandSent2  0x1               three.o
PID_ferror          0xf0              three.o
f15ptr              0x4               three.o
BlockCommand_Read   0x1               three.o
LogON               0x1               three.o
vikas               0x4               three.o
i                   0x1               three.o
Eventcounter        0x1               three.o
Botoffset           0x1               three.o
KeyTopX             0x2               three.o
DwordFormatPort1    0x1               three.o
off_hi              0x1               three.o
Del10mS             0x1               three.o
TagTable5           0x1               three.o
passindex           0x1               three.o
Port4IsSlave        0x1               three.o
BGTaskPtr_G1        0x4               three.o
newdraw             0x1               three.o
IbmMode2            0x1               three.o
TaskIgnore1         0x1               three.o
TempFlag2           0x1               three.o
PrevRecFrameLength2
                    0x1               three.o
Checksum_Error_Bit2
                    0x2               three.o
KeyX                0x2               three.o
textstyle           0x1               three.o
RecFrameLength2     0x2               three.o
BlockCommand        0x1               three.o
Micro_RTC_OP_FAIL   0x4               three.o
Port7GlobalBlockCount
                    0x2               three.o
AttachFailedNodesEnable2
                    0x1               three.o
ModelHIO            0x1               Product_Info.o
RXD_After_break1    0x2               three.o
xx                  0x2               three.o
da                  0x1               three.o
PrizmCoil           0x1               three.o
IgnoreGlobalTask    0x1               three.o
Ext_HistPtrOffset   0x4               three.o
PrevNodeIntrPort1   0x1               three.o
ReadAsciiData1      0x46              three.o
Max_BGTaskPtr_G3    0x4               three.o
DownloadFlag1       0x1               three.o
SignFlag            0x1               three.o
Del0S               0x4               three.o
TxNoBytes2          0x2               three.o
Previous_PLC_Mode   0x1               three.o
alarmpos            0x2               three.o
Upload_FP4030_Buff  0x4               three.o
Port                0x2               three.o
ind_addr_tag_5      0x1               three.o
ScreenFound         0x1               three.o
Task_Load           0x1               three.o
FrameCount1         0x1               three.o
PrintDone           0x1               three.o
Plc4Present         0x1               three.o
fillpattern         0x1               three.o
Alarmstatechange    0x1               three.o
Store_w_task        0x4               three.o
RXD_ON_bit1         0x2               three.o
NumOfBytes          0x1               three.o
Block2UpdatingStarted
                    0x1               three.o
Ydiff2              0x2               three.o
line_prev_y2        0xfe              three.o
BGStr2              0x46              three.o
COL_BY              0x1               three.o
FramePartiallyReceived1
                    0x1               three.o
Value_Retry_Count2  0x2               three.o
PopupKeypad         0x1               three.o
rem                 0x2               three.o
StopDataEntry       0x1               three.o
KeyBuffer           0x10              three.o
ModhiAddr           0x2               three.o
ToggleLCDMemory     0x1               three.o
DataLoggingInProcess1
                    0x1               three.o
ht                  0x1               three.o
Protocol1           0x1               three.o
Del1SDun            0x1               three.o
ho                  0x1               three.o
ValKey              0x1               three.o
byt1                0x4               two.o
tx1                 0x2               three.o
dx                  0x2               three.o
STX_TXD_BIT2        0x2               three.o
ExpansionPtr        0x4               three.o
Port2ModbusFirstAddr
                    0x80              three.o
FHWT_Result         0x2               three.o
DriverNum1          0x4               three.o
fltbarprevval       0x4               three.o
DigitFactor         0x4               three.o
Xdiff2              0x2               three.o
BGTaskCntr1         0x4               three.o
CommandQueueEmpty   0x1               three.o
ModbusSlave3        0x0               three.o
Data_entry_on       0x1               three.o
totbytes            0x1               three.o
TagTable7           0x1               three.o
add_hi              0x1               three.o
Interframe_Delay2   0x2               three.o
AttachFailedNodes1  0x1               three.o
RXD_STX_ARRAY2      0x5               three.o
UploadMode          0x1               three.o
KeyPending          0x1               three.o
Micro_RTC_DAY       0x4               three.o
TaskIgnore3         0x1               three.o
AlarmTag            0xc0              three.o
PrevKey             0x4               three.o
ASCIIStringData2    0x54              three.o
PrevFrameLength2    0x1               three.o
PlcAttachInProcess1
                    0x1               three.o
iEnd4               0x4               three.o
arry                0x6               three.o
disp_animat_space   0x2               three.o
Rate_Timer_Count    0x4               three.o
Value_Response_Bit2
                    0x2               three.o
no_of_pressed_task  0x2               three.o
RXD_No_Bytes1       0x2               three.o
FloatArry           0xc               three.o
Micro_RTC_OP_DAY    0x4               three.o
Value_Slient_ETX_Time2
                    0x2               three.o
SLV_REN             0x1               three.o
alarmdata           0x2               three.o
LowLimit            0x2               three.o
BroadCastDataAdd1   0x4               three.o
HistPtrOffset       0x4               three.o
LocalTempPointer    0x4               three.o
two_a_sqr           0x4               three.o
TotalNoAlmInWindow  0x1               three.o
ScreenChange        0x1               three.o
ExpTimeOut          0x1               three.o
Init_Mem_except_Keep
                    0x1               three.o
TempRxAddr1         0x2               three.o
Micro_RTC_ANS_DAY   0x4               three.o
DelayAfterBreak2    0x1               three.o
SerialFlashSem_Com2
                    0x1               three.o
TXD_NoOfCRCBytes2   0x2               three.o
Value_Slient_STX_Time1
                    0x2               three.o
blanktxt            0x1               three.o
NodeIntr            0x1               three.o
UploadBuffer        0x5dc             three.o
Transmit_Timeout_Flag
                    0x1               three.o
TagType             0x1               three.o
PlcAttachDone2      0x1               three.o
f2ptr               0x4               three.o
HSPWM_STOP_RunBit   0x1               three.o
pll_0_clk_khz       0x4               three.o
TxSem               0x1               three.o
HSINP_Config        0x1               three.o
TagNo               0x4               three.o
Comm2Buff           0x100             three.o
ModSlaveReset2      0x1               three.o
RegAddr4            0x4               three.o
DataTypeFormat      0x1               three.o
NodesForPort1       0x1               three.o
p_on_loc            0x1               three.o
Node                0x2               three.o
Xav2                0x2               three.o
totallength         0x2               three.o
TextColor           0x2               three.o
PopScreenFound      0x1               three.o
StartingAddrPort1   0xa               three.o
KeyTopY             0x2               three.o
TXD_STX_ARRAY1      0x5               three.o
SqrtPtr             0x4               three.o
dterm               0x30              three.o
multiplier          0x2               three.o
BackPlaneCmd        0x1               three.o
SwitchPrev_1        0x1               three.o
GlobalBlockCntr1    0x1               three.o
Drv2Del1SDun        0x1               three.o
MainloopScanTime    0x2               three.o
RTCTASK_Status2     0x1               three.o
IbmTimeOut2         0x1               three.o
mi                  0x1               three.o
PreviousScreen      0x2               three.o
PrizmPORT2          0x1               three.o
HoldModeMessageDisplayed
                    0x1               three.o
RecCntGlob2         0x4               three.o
FrameLength1        0x1               three.o
text_ptr            0x4               three.o
PortTag             0x1               three.o
z_level             0x1               three.o
PasswordScr         0x1               three.o
HRR                 0x1               three.o
start_addr          0x2               three.o
Port2PlcModel       0x20              three.o
FactApplEnter       0x1               three.o
IBMFlag1            0x1               three.o
ByteToBeSend1       0x1               three.o
ListOfBlocksPort3   0x0               three.o
PrevBlockSizePort2  0x1               three.o
f4ptr               0x4               three.o
passobjtx           0x2               three.o
HSC_Set2            0x1               three.o
SendControlStatusCmd2
                    0x1               three.o
HSC_Set1            0x1               three.o
Drv2Timeout         0x1               three.o
task                0x1               three.o
GlobalReleasedTaskBytes
                    0x2               three.o
decimal_pt          0x2               three.o
ListOfBlocksPort6   0x4               three.o
LED_0               0x1               three.o
col                 0x2               three.o
NoOfDigit           0x1               three.o
Halt_Command_Before_Download
                    0x1               three.o
RecipeCount3        0x4               three.o
TimeOutFlag         0x1               three.o
SlowFlash           0x1               three.o
gtaskflag           0x4               three.o
MaxPLCBlocks_Write1
                    0x2               three.o
NumericASCII_Dec    0xa               three.o
Model_Type          0x14              three.o
HSPWM_Channel1_NoOfPulses
                    0x4               three.o
D_E_no_of_digit     0x1               three.o
Severity            0x1               three.o
EVENT_BASE_PTR      0x2               three.o
RecipeStr2          0x46              three.o
TxStartAdd1         0x2               three.o
CoilSize            0x1               three.o
TagTableUpdated1    0x1               three.o
abSerialFlashBuff2  0xa               three.o
SendModRespFromMainLoop3
                    0x1               three.o
Port7BlockCount     0x2               three.o
mo                  0x1               three.o
RXD_ON_bit2         0x2               three.o
SkipGlobalTask1     0x1               three.o
WriteOffset         0x4               Product_Info.o
Micro_RTC_HOUR      0x4               three.o
CMD                 0x1               three.o
InterFrameDelay1    0x4               three.o
CursorLoc           0x2               three.o
NodeAddCount1       0x1               three.o
CurrNodeAddress1    0x1               three.o
STX_TXD_BIT1        0x2               three.o
RegLength2          0x1               three.o
Stored_BGTaskPtr_W1
                    0x4               three.o
PLCBlockSize1       0x4               three.o
P_Screen_no         0x4               three.o
TXD_ETX_ARRAY2      0x5               three.o
LedState_OP4        0x1               three.o
MSG_USB             0x4               three.o
BGTaskPtr_W1        0x4               three.o
counter             0x2               three.o
ExpConnected        0x1               three.o
ADFrame1            0x1               three.o
Port3Plc            0x6               three.o
BroadCastEnable1    0x1               three.o
key_loc             0x4               three.o
ReadWrite2          0x1               three.o
prev_pixel_byte     0x1               three.o
PrevKey3            0x2               three.o
TXD_ETX_F1          0x2               three.o
PLCTagError         0x1               three.o
Conversion_buf      0x4               three.o
ModhiAddr2          0x2               three.o
DEHideData          0x1               three.o
ASCII_Keypad_Style  0x1               three.o
CoordREdraw         0x200             three.o
no_of_released_task
                    0x2               three.o
IBMDownload2        0x1               three.o
TXD_Checksum_method1
                    0x2               three.o
AddrRead4Byte       0x2               three.o
pll_1_clk_khz       0x4               three.o
ListOfBlocksPort8   0x4               three.o
SendControlStatusCmd
                    0x1               three.o
Global_no_of_released_task
                    0x2               three.o
loc_x               0x2               three.o
PlcAttachRequire2   0x1               three.o
PWM_Count2          0x4               three.o
Display_digit       0x1               three.o
LedState_RUN        0x1               three.o
CMDQ1_TagNamePointer
                    0x4               three.o
RecTaskCommandSent1
                    0x1               three.o
PID_OPR_C           0x4               three.o
PopupScreen         0x18              three.o
TextBgColor         0x2               three.o
RxEnableBit2        0x2               three.o
Needle_pivot_y      0x2               three.o
D_e_buf             0x4               three.o
BGTaskTillDelayExecuted
                    0x1               three.o
BreakComplete2      0x1               three.o
RecCntWhile2        0x4               three.o
PrevNodeAddress2    0x1               three.o
ScrsvrPassword      0x6               three.o
histalarmchange     0x1               three.o
on_txt_length       0x1               three.o
BGTaskCount2        0x4               three.o
tag_ptr             0x4               three.o
font_ptr            0x4               three.o
ScrZeroLoaded       0x1               three.o
ExpTimeOutCnt       0x1               three.o
USB_MONITOR_FLAG    0x1               three.o
patterncolor        0x2               three.o
Response2Completed  0x1               three.o
ExpGlobalBlockCntr  0x4               three.o
CurrBlockPort1      0x2               three.o
Port1PlcRegLen      0x20              three.o
PresentKey          0x1               three.o
four_a_sqr          0x4               three.o
NoSend2             0x1               three.o
no_of_tags          0x2               three.o
PrevPlcState        0x40              three.o
LedState_RED        0x1               three.o
RXD_COMTD_BIT1      0x2               three.o
GlobalBlockCntr3    0x1               three.o
MaxPLCBlocks_Read2  0x2               three.o
AlarmBit            0x600             three.o
Port2ErrorStatus    0x20              three.o
TagTable6           0x1               three.o
LogPrint2           0x1               three.o
SendCnt2            0x1               three.o
Baud_Addr_local_buff
                    0x4               three.o
Total_Data_Download_Frames
                    0x4               three.o
PrevDelayTrans      0x1               three.o
ModloAddr           0x2               three.o
RBR_CHECK           0x4               three.o
PrevXdb             0x4               three.o
CommTimeOut4        0x1               three.o
Switch_Dir          0x1               three.o
RTC_Recipe_Delay_Port2
                    0x1               three.o
ModelName           0x4               Product_Info.o
YOff2               0x2               three.o
Max_BGTaskPtr_G1    0x4               three.o
ADDR_LOGIC_HI       0x1               three.o
dy                  0x2               three.o
y                   0x2               three.o
Slient_STX_Time1    0x2               three.o
PID2_ST_VAR         0x2               three.o
RetCntOverRunError1_R
                    0x1               three.o
chkser1intr         0x1               three.o
ModelType2          0x1               three.o
Yoffset2            0x2               three.o
PID_OPR_A           0x4               three.o
Fj                  0x4               two.o
UpdateNodeStatusPort2
                    0x1               three.o
RXD_STX_F2          0x2               three.o
StringLength2       0x4               three.o
Clear_Timer_Vars    0x1               three.o
yend                0x2               three.o
key                 0x1               three.o
RetentiveSize_Counter
                    0x2               three.o
FailedNodeAddr1     0x1               three.o
HSPWM_Prev_Duty_Cycle
                    0x4               three.o
temp_ptr            0x4               three.o
var2                0x4               three.o
degNeedle           0x4               three.o
PrevRecFrameLength1
                    0x1               three.o
RetCntOverRunError2
                    0x1               three.o
Ident               0x1               three.o
CheckHoriOrVer      0x1               three.o
DummyComm1          0x1               three.o
AllowMaxPLCBlockSize1
                    0x1               three.o
AllowMaxPLCBlockSize2
                    0x1               three.o
var3                0x4               three.o
NewKey              0x4               three.o
yrad                0x2               three.o
Onesec              0x1               three.o
TagStatus3          0x20              three.o
tmp_data            0x1               three.o
AssociatedScreenPtr
                    0x4               three.o
d                   0x4               three.o
PrizmTagType1       0x1               three.o
RecipeBlockLen2     0x4               three.o
BaudRate1           0x1               three.o
Halt_Mode_Retain_Flag_BW
                    0x1               three.o
no_obj              0x2               three.o
CMDQ3               0x2               three.o
TXD_ETX_ARRAY1      0x5               three.o
ye                  0x1               three.o
Interframe_Delay1   0x2               three.o
Application_Present
                    0x1               three.o
Show                0x1               three.o
DriverScanTime2     0x4               three.o
Response_Bit1       0x2               three.o
Serial_Com1Int      0x1               three.o
FloatFactor         0x4               three.o
Port3BlockCount     0x2               three.o
xrad                0x2               three.o
xend                0x2               three.o
BCD_reg_data        0x4               three.o
FramePartiallyReceived2
                    0x1               three.o
ThreeHalfDel2       0x1               three.o
no_of_rows          0x4               three.o
PassBuff            0x4               three.o
mode_screen_X       0x4               three.o
min                 0x1               three.o
PopupTopx           0x2               three.o
IFDelayPort1        0x4               three.o
maskdata            0x1               three.o
Sbits_Addr_local_buff2
                    0x4               three.o
Local_temp_hi       0x4               three.o
TimeOut2            0x4               three.o
g_task              0x2               three.o
obj_bytes_0         0x4               three.o
Ypv2                0x2               three.o
ListOfBlocksPort7   0x4               three.o
Port1IntrCMDQ       0x1               three.o
PlcAttachRequire1   0x1               three.o
fgcolor             0x1               three.o
Checksum_Error_Bit1
                    0x2               three.o
set1                0x1               three.o
KeyFound            0x1               three.o
BGTaskCntr2         0x4               three.o
readLSR2            0x4               three.o
top_y               0x2               three.o
line_prev_x2        0xfe              three.o
Micro_RTC_ANS_HOUR  0x4               three.o
Response_Time1      0x2               three.o
MaxPLCBlocks_Read1  0x2               three.o
Prev_PSTR_Bit       0x1               three.o
UpdateScr           0x1               three.o
no_obj1             0x2               three.o
TCH_DETECT          0x1               three.o
Micro_RTC_ANS_YEAR  0x4               three.o
textmask            0x1               three.o
Temp_Value_RXD_NoOfETXBytes1
                    0x2               three.o
TransmitEnableBit1  0x1               ASCIIComm.o
MaxPLCBlocks_Write2
                    0x2               three.o
NewTime             0x4               three.o
Value_Retry_Count1  0x2               three.o
Bcc                 0x1               three.o
CursorX             0x2               three.o
yy                  0x2               three.o
EndOfFrame2         0x1               three.o
Max_RecCntWhile1    0x4               three.o
Port1PlcModel       0x20              three.o
SwitchLCDMemory     0x1               three.o
Backlit_val_FP4020  0x4               three.o
ExpCurrNodeAddress  0x1               three.o
statefound          0x1               three.o
BGTaskExec2         0x1               three.o
RXD_ETX_ARRAY2      0x5               three.o
PSTR_Bit            0x1               three.o
Port1ModbusFirstRegType
                    0x20              three.o
Port1Count          0x2               three.o
WritingCMDQ4        0x1               three.o
Bit_no              0x1               three.o
sec                 0x1               three.o
BGStrLen1           0x1               three.o
AddrRead4BytePort   0x4               three.o
Crc4Hi              0x1               three.o
NumericASCII_no_of_digit
                    0x1               three.o
IFDelayPort2        0x4               three.o
RecipeCount1        0x4               three.o
PLCTagPresent       0x1               three.o
bottomright_x       0x2               three.o
b_sqr               0x4               three.o
TxStartAdd2         0x2               three.o
MaxValuefloat       0x4               three.o
ReadDone1           0x1               three.o
TrendObjCnt         0x1               three.o
DEscrno             0x2               three.o
DelayCountValue     0x2               three.o
Delay5_sec_count    0x2               three.o
TsRaw               0x14              three.o
Del0SDun            0x1               three.o
OverRunError2       0x1               three.o
histalrmdispptr     0x4               three.o
Init_Keep_Mem       0x1               three.o
Firm_Rev_Appl       0x14              three.o
USB_TIMEOUT_FLAG    0x1               three.o
NodesForPort2       0x1               three.o
Node_addr           0x2               three.o
SwapStr             0x46              three.o
FloatFlag           0x1               three.o
prev_x              0x2               three.o
ASA_Byte_RXD2       0x2               three.o
DATA_MONITOR_FLAG   0x1               three.o
ErrorInfo_Data      0x10              three.o
searchpointer1      0x4               three.o
NodeIsFailed2       0x1               three.o
CurrWaitTillFlag    0x4               three.o
BeforeWaitDelayFlag
                    0x1               three.o
Buzzer_On           0x1               two.o
Port8GlobalBlockCount
                    0x2               three.o
BGTaskCount1        0x4               three.o
DrawMainScrObj      0x1               three.o
NextKey             0x4               three.o
HSPWM_TempDecTime   0x8               three.o
TimeOutCount        0x1               three.o
ScreenPtr           0x2               three.o
RxNoBytes1          0x2               three.o
D_E_screen_obj_ptr  0x4               three.o
BGRegLength2        0x1               three.o
SendSerialMonRespFromMainLoop2
                    0x1               three.o
Usb_Total_Frame     0x1               three.o
TempCountPort1      0x1               three.o
CopyTagSTR_InGlobal
                    0x1               three.o
DecimalEntry        0x1               three.o
x1                  0x2               three.o
reg_lo_lo           0x1               three.o
StringLength1       0x4               three.o
Appln_ptr           0x4               three.o
Port1Var5           0x4               three.o
FirstDataByte       0x1               three.o
CRCreg              0x1               three.o
mcg_clk_khz         0x4               three.o
RecCntGlob1         0x4               three.o
D_E_KeypadType      0x1               three.o
Password_Scr_Ptr    0x4               three.o
FONT_COMP           0x1               three.o
GetResponse1        0x1               three.o
ByteofTag           0x1               three.o
NumOfBlocksPort1    0x1               three.o
Length1Received     0x1               three.o
YVAL2               0x2               three.o
NotAccept2          0x1               three.o
DXVtg2              0x2               three.o
Port6BlockCount     0x2               three.o
RecipeRTC1          0x200             three.o
Halt_Mode_Retain_Flag_Timer
                    0x1               three.o
PLCBlockSize2       0x4               three.o
NoSend1             0x1               three.o
SendFirstByte2      0x1               three.o
Port1ModbusFirstAddr
                    0x80              three.o
ModbusCoil2         0x1               three.o
offset              0x1               three.o
RECTaskExec2        0x1               three.o
SwitchNxt           0x1               three.o
Plc3Present         0x1               three.o
Port2Plc            0x6               three.o
pix_bit             0x1               three.o
D_E_Bit_No          0x1               three.o
LogPrint1           0x1               three.o
BitOperationPort1   0x1               three.o
Port4BlockCount     0x2               three.o
Micro_RTC_OP_YEAR   0x4               three.o
y2_loc              0x2               two.o
MW_Reg_Offset       0x4               three.o
TrendScroll         0x1               three.o
LedState_COM2       0x1               three.o
Ycv2                0x2               three.o
add_lo              0x1               three.o
Port2ModbusFirstRegType
                    0x20              three.o
Delay_FHWT          0x2               three.o
NoOfReg4            0x4               three.o
hr                  0x1               three.o
Slient_ETX_Time1    0x2               three.o
TXD_STX_F1          0x2               three.o
RXD_NoOfSTXBytes2   0x2               three.o
ANA_DLY_FLAG        0x4               three.o
passobjty           0x2               three.o
TypeOfTag           0x1               three.o
Max_RecCntWhile3    0x4               three.o
TagTable1           0x200             three.o
passverify          0x1               three.o
Delay_10ms          0x4               three.o
x_num               0x2               three.o
RECIPE_TYPE1        0x1               three.o
BGNodeAddr2         0x1               three.o
AlarmType           0x1               three.o
RBR_CHECK_2         0x4               three.o
PrevScrSvrTime      0x2               two.o
Max_BGTaskPtr_W2    0x4               three.o
DontShiftCmdQ1      0x1               three.o
LocalKeyFound       0x1               three.o
Retry_Count2        0x2               three.o
Addr2Byte           0x4               three.o
Datechange          0x1               three.o
TempCount           0x1               three.o
StopBit1            0x1               three.o
RecipeLen2          0x4               three.o
RetCntOverRunError1
                    0x1               three.o
Port3ErrorStatus    0x0               three.o
ModloAddr2          0x2               three.o
ByteFormatPort2     0x1               three.o
topleft_y           0x2               three.o
RtcData             0x1               three.o
RXD_Checksum_method1
                    0x2               three.o
Max_BGTaskPtr_G2    0x4               three.o
Value_Response_Bit1
                    0x2               three.o
CMDQ2               0x32              three.o
PopupBotx           0x2               three.o
BroadCastEnableBit1
                    0x4               three.o
TxNoBytes1          0x2               three.o
RecCmdExec          0x1               three.o
MoveCursor          0x1               three.o
wl                  0x18c             three.o
Y2Loc               0x1               two.o
Key_Buffer_Empty    0x1               three.o
DigitBuff           0x2               three.o
alarmno             0x1               three.o
NewFrame            0x1               three.o
Halt_Mode_Retain_Flag_Counter
                    0x1               three.o
TagNamePointer1     0x4               three.o
Sys_PLC2            0x1               three.o
LedState_ERROR      0x1               three.o
erase               0x2               three.o
EXEC_PLC_ASCII1     0x1               three.o
Send_By             0x1               three.o
BroadCastModbusTag1
                    0x1               three.o
OverRunError1       0x1               three.o
DEByteSize          0x1               three.o
PowerOnGlobal1      0x1               three.o
RXD_NoOfETXBytes1   0x2               three.o
Del20mSDun          0x1               three.o
passcount           0x1               three.o
DisplayBkColor      0x1               three.o
FontMultiY          0x1               three.o
sign_data           0x4               three.o
NoOfBlocks          0x2               three.o
Del10mSDun          0x1               three.o
PLCModel            0x2               three.o
PID2_OPR_C          0x4               three.o
DEobjno             0x2               three.o
HistTextPtr         0x4               three.o
PressDun            0x1               three.o
HistAlarmPresent    0x1               three.o
tx2                 0x2               three.o
ScreenSaver         0x1               three.o
Baud_Addr_local_buff2
                    0x4               three.o
CursorPos           0x1               three.o
AttachFailedNodesExp
                    0x1               three.o
Micro_RTC_SECOND    0x4               three.o
DwordFormatPort2    0x1               three.o
WhilePressedTask    0x1               three.o
Total_send_usb      0x4               three.o
WritePtrAccess      0x1               three.o
BGCMDQ1_Rec         0xc8              three.o
PowerDwnAppl_Info   0x4               three.o
BGTaskPtr_G2        0x4               three.o
PrintBuff           0xa8              three.o
Xcv2                0x2               three.o
key_no              0x2               three.o
MELSEC_Port2_Info   0x40              three.o
_dwUsbUploadAppSize
                    0x4               three.o
SpecialEagleDriver2
                    0x1               three.o
RespNok             0x1               three.o
Plc1Present         0x1               three.o
groupno             0x1               three.o
Halt_Mode_Retain_Flag_Data
                    0x1               three.o
CommTimeOut2        0x1               three.o
Port6GlobalBlockCount
                    0x2               three.o
WriteError1         0x1               three.o
WriteCount2         0x1               three.o
Needle_length       0x2               three.o
x1_sav              0x2               three.o
key_bytes           0x2               three.o
Value_Slient_ETX_Time1
                    0x2               three.o
Ladder_Present      0x1               three.o
SendModRespFromMainLoop2
                    0x1               three.o
a                   0x1               three.o
WriteCount          0x4               Product_Info.o
DontIncrementMessageID1
                    0x1               three.o
PLCOnPort1          0x4               three.o
NodeAttached2       0x4               three.o
LedState_OP5        0x1               three.o
i1                  0x2               three.o
SplPLC              0x1               three.o
PrevTransmitEnableBit2
                    0x1               ASCIIComm.o
TmoPort1            0x4               three.o
Screen_Change       0x1               three.o
RTCLoop             0x1               three.o
DwordIntFormatPort1
                    0x1               three.o
CurrTagPtr          0x4               three.o
no_of_languages     0x1               three.o
TXD_NoOfCRCBytes1   0x2               three.o
HistAlarm_Window    0x1               three.o
TXD_CRCSelection2   0x2               three.o
line_prev_y1        0xfe              three.o
ValidDataArr        0x6               three.o
TagTableUpdated2    0x1               three.o
PrizmTagType2       0x1               three.o
passfgcolor         0x2               three.o
PLCCode             0x2               three.o
DataEntryWidth      0x2               three.o
ROW_UNIT            0x1               three.o
PrizmPORT           0x1               three.o
BGTASK_Status1      0x1               three.o
no_of_press_task    0x2               three.o
PLC3Tag             0x1               three.o
StatusByte2         0x1               three.o
PrintingData2       0x1               three.o
COMMAND             0x14              two.o
UART_REC_DATA       0x1               three.o
wIndex4             0x4               three.o
Scrsvruser_Name     0xf               three.o
ScreenChangeFlag1   0x1               three.o
TagStatus2          0x20              three.o
RxOutputBit2        0x2               three.o
Plc1Dat1Hi          0x1               three.o
Slient_STX_Time2    0x2               three.o
No_of_bytes         0x1               three.o
Micro_RTC_OP_SECOND
                    0x4               three.o
NodeIntrPort1CMDQ   0x1               three.o
PLCOnPort3          0x4               three.o
PrizmTagAddress     0x4               three.o
BlockSizePort1      0x1               three.o
ind_addr_tag_3      0x1               three.o
Micro_RTC_MONTH     0x4               three.o
TagError            0x1               three.o
IbmMode1            0x1               three.o
RxEnabled2          0x1               three.o
b_task              0x2               three.o
Delay_w_task        0x2               three.o
RetryCount1         0x1               three.o
LadderScanTime      0x2               three.o
PrevRateVal         0x10              three.o
RESULT              0x14              two.o
ASCIIStringData1    0x54              three.o
PrevKey0            0x2               three.o
RecipeCntr1         0x4               three.o
MinValuefloat       0x4               three.o
FrameLength2        0x1               three.o
_dwUsbTxCounter     0x4               three.o
RXD_NoOfCRCBytes1   0x2               three.o
Response_Time2      0x2               three.o
temp_lo             0x4               three.o
DataLogMemoryErasing
                    0x1               three.o
BroadCastModbusAdd2
                    0x4               three.o
PlcDat2Lo           0x1               three.o
Scale               0x1               three.o
DelayCount          0x2               three.o
last_screen_no      0x2               three.o
Ybv2                0x2               three.o
StartDummComm2      0x1               three.o
DontSave_ConfigReg  0x1               three.o
XOff2               0x2               three.o
ListOfBlocksPort5   0x4               three.o
m                   0x2               three.o
RegLengthInCMDQ1    0x1               three.o
animation           0x1               three.o
PlcAttachInProcess2
                    0x1               three.o
TxSem_Com2          0x1               three.o
TempCount1          0x1               three.o
ExpTagTable         0x1               three.o
Max_RecCntGlob3     0x4               three.o
Sys_Print2          0x1               three.o
LED_2               0x1               three.o
TXDClearFlag2       0x1               three.o
HSPWM_TotalTime     0x8               three.o
StartAngle          0x4               three.o
ScreenPtrPort1      0x2               three.o
TempRxAddr2         0x2               three.o
TempRecipe          0x14              three.o
DelayAfterBreak1    0x1               three.o
AttachFailedNodes2  0x1               three.o
PlcAttachDone1      0x1               three.o
StateChange         0x1               three.o
Drv1Del1SDun        0x1               three.o
RecCntWhile3        0x4               three.o
mode_screen_Y       0x4               three.o
Value_Interframe_Delay2
                    0x2               three.o
Port1Intr           0x1               three.o
Stored_BGTaskPtr_W3
                    0x4               three.o
EXP_ptr             0x4               three.o
FloatRet            0x4               two.o
No_of_dataentries   0x2               three.o
Wait_Till_Skip      0x4               three.o
CurrTagPtrPort1     0x4               three.o
Slient_ETX_Time2    0x2               three.o
CurrBlockInPort1    0x2               three.o
CurrNodeAddress2    0x1               three.o
PowerOnAttach2      0x1               three.o
ExpNodeAttached     0x0               three.o
FONT_BY             0x1               three.o
Dbits_Addr_local_buff
                    0x4               three.o
TXD_STX_F2          0x2               three.o
Del100mS            0x1               three.o
Mem                 0x4               Product_Info.o
EndAngle            0x4               three.o
PrintStatus         0xa               three.o
D_E_DataType        0x1               three.o
Micro_RTC_MINUTE    0x4               three.o
CommandReq          0x1               three.o
CMDQAttachDone2     0x1               three.o
DownloadCount3      0x4               three.o
reg_lo_hi           0x1               three.o
Comm1Buff           0x100             three.o
SendCntr1           0x2               three.o
Value_RXD_After_break2
                    0x2               three.o
Block1UpdatingStarted
                    0x1               three.o
BroadCastPtr        0x4               three.o
cnt1                0x4               three.o
ExpProtocol         0x1               three.o
LedRow              0x1               three.o
pa                  0x2               three.o
NewScreen           0x1               three.o
CursorY             0x2               three.o
i_crc4              0x4               three.o
XW_YW_MW_ParameterPtr
                    0x4               three.o
IBMDownload1        0x1               three.o
StoreLastScreen     0x2               three.o
CharObjCnt          0x1               three.o
PID2_OPR_A          0x4               three.o
Temp_Value_RXD_NoOfETXBytes2
                    0x2               three.o
AlarmScanTime       0x2               three.o
NewData             0x1               three.o
SearchPointer       0x4               three.o
BroadCastEnableBit2
                    0x4               three.o
font_multi          0x1               three.o
PWM_Count1          0x4               three.o
Del500mS            0x1               three.o
First_loop          0x1               three.o
PLC_MODE            0x1               three.o
Int_Cursor          0x1               three.o
ModelType1          0x1               three.o
TagTable8           0x1               three.o
FrameNotCompleted1  0x1               three.o
FWD_REV             0x2               three.o
ByteSize            0x1               three.o
flt1                0x4               three.o
tempscreen          0x2               three.o
Applupload_Buff     0x5               three.o
ModbusSlave1        0x1               three.o
DigitBuff1          0x2               three.o
BreakComplete1      0x1               three.o
Restore_screen_no   0x2               three.o
ThreeHalfDel1       0x1               three.o
SendModRespFromMainLoop4
                    0x1               three.o
TXD_COMTD_BIT2      0x2               three.o
multistateredraw    0x1               three.o
PrizmSizeCode       0x1               three.o
ADDR_LOGIC_LO       0x1               three.o
Micro_RTC_ANS_MONTH
                    0x4               three.o
ExpTagTableUpdated  0x1               three.o
InterFrameDelay2    0x4               three.o
height              0x2               three.o
ValidCheckOk        0x1               three.o
Appln_posn          0x4               three.o
RxOutputBit1        0x2               three.o
TimeFlag            0x1               three.o
ScrollRight         0x1               three.o
Prefix2             0x1               three.o
RXD_CRCSelection2   0x2               three.o
ind_addr_tag_6      0x1               three.o
NodeAttached1       0x4               three.o
PLC1Tag             0x1               three.o
TCHdata             0x1               three.o
DEobjtype           0x2               three.o
Plc1Dat2Hi          0x1               three.o
LedState_OP1        0x1               three.o
Prevday             0x1               three.o
RTC_OFFSET2         0x1               three.o
F1_Touched          0x1               three.o
BGTaskPtr_W2        0x4               three.o
PlcMode2            0x1               three.o
SignData            0x1               three.o
ObjNoRedraw         0x2               three.o
alrmdispptr         0x4               three.o
width               0x2               three.o
ReceiveBuffLength1  0x2               three.o
SendCnt1            0x1               three.o
DummyScan2          0x1               three.o
MSG                 0x8c              three.o
RTCTASK_Status1     0x1               three.o
Alarm_Window        0x1               three.o
D_E_AnimationBytes  0x1               three.o
row                 0x2               three.o
application_buffer_lst
                    0x14              three.o
BlockSize           0x2               three.o
w_task              0x2               three.o
Recieve_Check       0x1               three.o
iStart4             0x4               three.o
TXD_ETX_F2          0x2               three.o
TotalStringLength   0x1               three.o
GeFlag1             0x1               three.o
ModbusMultipleWrite1
                    0x4               three.o
Value_Response_Time1
                    0x2               three.o
EndOfFrame1         0x1               three.o
DelayTaskLoc        0x4               three.o
PrevState           0x80              three.o
RTC_Recipe_Delay_Port3
                    0x1               three.o
WriteCMDQAttachDone1
                    0x1               three.o
Plc2Comm            0x1               three.o
LocalPressedTaskBytes
                    0x2               three.o
X                   0x2               three.o
PopupBoty           0x2               three.o
AddrReadByte1       0x4               three.o
DataFactor          0x1               three.o
Temp_HAread         0x4               three.o
TXD_NoOfSTXBytes2   0x2               three.o
LastMainScan        0x4               three.o
BlockSize1          0x1               three.o
a_sqr               0x4               three.o
TagErrorFlag2       0x1               three.o
Bcc1                0x1               three.o
a_task              0x2               three.o
PlcDat1Hi           0x1               three.o
DriverScanTime1     0x4               three.o
counter2            0x2               three.o
Carry               0x1               three.o
ind_addr_tag_1      0x1               three.o
Prevhr              0x1               three.o
RegLength           0x1               three.o
screen_obj_ptr      0x4               three.o

Discarded input sections

 .debug_frame   0x00000000       0x30 D:\ToolChain3\arm-none-eabi\lib\thumb2\libm.a(lib_a-s_cos.o)
 .debug_frame   0x00000000       0x34 D:\ToolChain3\arm-none-eabi\lib\thumb2\libm.a(lib_a-s_floor.o)
 .debug_frame   0x00000000       0x34 D:\ToolChain3\arm-none-eabi\lib\thumb2\libm.a(lib_a-s_modf.o)
 .debug_frame   0x00000000       0x30 D:\ToolChain3\arm-none-eabi\lib\thumb2\libm.a(lib_a-s_sin.o)
 .debug_frame   0x00000000       0x38 D:\ToolChain3\arm-none-eabi\lib\thumb2\libm.a(lib_a-w_sqrt.o)
 .debug_frame   0x00000000       0x30 D:\ToolChain3\arm-none-eabi\lib\thumb2\libm.a(lib_a-wf_exp.o)
 .debug_frame   0x00000000       0x3c D:\ToolChain3\arm-none-eabi\lib\thumb2\libm.a(lib_a-e_rem_pio2.o)
 .debug_frame   0x00000000       0x34 D:\ToolChain3\arm-none-eabi\lib\thumb2\libm.a(lib_a-e_sqrt.o)
 .debug_frame   0x00000000       0x34 D:\ToolChain3\arm-none-eabi\lib\thumb2\libm.a(lib_a-ef_exp.o)
 .debug_frame   0x00000000       0x3c D:\ToolChain3\arm-none-eabi\lib\thumb2\libm.a(lib_a-k_cos.o)
 .debug_frame   0x00000000       0x3c D:\ToolChain3\arm-none-eabi\lib\thumb2\libm.a(lib_a-k_rem_pio2.o)
 .debug_frame   0x00000000       0x3c D:\ToolChain3\arm-none-eabi\lib\thumb2\libm.a(lib_a-k_sin.o)
 .debug_frame   0x00000000       0x20 D:\ToolChain3\arm-none-eabi\lib\thumb2\libm.a(lib_a-s_fabs.o)
 .debug_frame   0x00000000       0x28 D:\ToolChain3\arm-none-eabi\lib\thumb2\libm.a(lib_a-s_fpclassify.o)
 .debug_frame   0x00000000       0x20 D:\ToolChain3\arm-none-eabi\lib\thumb2\libm.a(lib_a-s_matherr.o)
 .debug_frame   0x00000000       0x30 D:\ToolChain3\arm-none-eabi\lib\thumb2\libm.a(lib_a-s_scalbn.o)
 .debug_frame   0x00000000       0x20 D:\ToolChain3\arm-none-eabi\lib\thumb2\libm.a(lib_a-sf_finite.o)
 .debug_frame   0x00000000       0x28 D:\ToolChain3\arm-none-eabi\lib\thumb2\libm.a(lib_a-s_copysign.o)
 .debug_frame   0x00000000       0x20 D:\ToolChain3\arm-none-eabi\lib\thumb2\libc.a(lib_a-errno.o)
 .debug_frame   0x00000000       0x2c D:\ToolChain3\arm-none-eabi\lib\thumb2\libc.a(lib_a-memset.o)
 .debug_frame   0x00000000       0x20 D:\ToolChain3\lib\gcc\arm-none-eabi\4.5.2\libgcc.a(_divsi3.o)

Memory Configuration

Name             Origin             Length             Attributes
rom              0x00008000         0x00061800         xr
ram              0x1fff6000         0x00016800         xrw
*default*        0x00000000         0xffffffff

Linker script and memory map

                0x00008000                . = 0x8000

.text1          0x00008000    0x2bd90
                0x00008000                __cs3_region_start_rom = .
 *(.cs3.interrupt_vector)
 .cs3.interrupt_vector
                0x00008000      0x400 vectors.o
                0x00008000                __vector_table
                0x00008400                . = (__cs3_region_start_rom + 0x400)
                0x00008400        0x4 LONG 0x1234567
                0x00008404        0x4 LONG 0x89abcdef
                0x00008408        0x4 LONG 0xffffffff
                0x0000840c        0x1 BYTE 0xfe
                0x0000840d        0x1 BYTE 0xff
                0x0000840e        0x1 BYTE 0xff
                0x0000840f        0x1 BYTE 0xff
 MplcISR.o(*.text)
 .text          0x00008410       0x20 MplcISR.o
                0x00008410                default_isr
                0x00008414                PITChannel_1
                0x00008418                SerialISR
                0x0000841c                PORTE_PinDetect
                0x00008800                . = (__cs3_region_start_rom + 0x800)
 *fill*         0x00008430      0x3d0 00
 one.o(.text)
 .text          0x00008800       0x54 one.o
                0x00008800                __main
 two.o(.text)
 .text          0x00008854      0x998 two.o
                0x00008854                FlashErase_FHWT
                0x0000886c                FlashProgram_FHWT
                0x00008890                InitScreen_Refresh
                0x00008892                ClearScreen
                0x000088bc                Abort_Handler_message
                0x000088e4                Undefined_Handler_message
                0x0000890c                SWI_Handler_message
                0x00008934                Prefetch_Handler_message
                0x0000895c                BACKLIT_CONTROL
                0x00008994                DisplayPowerUpMsg
                0x00008a1c                Localdel
                0x00008a32                K20LCD_WRITE
                0x00008b00                Write_LCD_Data
                0x00008b34                Write_LCD_Cmd
                0x00008b68                ClearDisp
                0x00008b98                WriteXLoc
                0x00008bc0                WriteYLoc
                0x00008bd4                ChkLCDpage
                0x00008c48                DispCross
                0x00008c94                draw_buff
                0x00008d48                ConstartChange
                0x00008d68                InitScreen
                0x00008e2c                InitWDT
                0x00008e2e                CallDelay
                0x00008e30                CallDelay1S
                0x00008e32                ReadByte
                0x00008e3a                ReadFontByte
                0x00008e3e                ReadFourBytes
                0x00008e6a                ReadFloatBytes
                0x00008e6c                RegToFloat
                0x00008e6e                ReadTwoBytes
                0x00008e8a                ValKeyBuz
                0x00008e8c                InValKeyBuz
                0x00008e8e                InitFontPtrs
                0x00008e90                Read_HW_Specs
                0x00008f18                ReadScrSvrInfo
                0x00008f1a                UpdateScrSvrInfo
                0x00008f1c                UpdateScrSvrSysReg
                0x00008f1e                ColorChange
                0x00008f22                ReadByteEXP
                0x00008f24                ReadWORDEXP
                0x00008f40                ReadDWORDEXP
                0x00008f6c                Powr_Down_Mode_FHWT
                0x00008fdc                Powr_Down_Mode
 three.o(.text)
 *fill*         0x000091ec        0x4 00
 .text          0x000091f0    0x26ba4 three.o
                0x000091f0                trace_clk_init
                0x0000920c                fb_clk_init
                0x00009228                sysinit
                0x000092c4                stop
                0x000092d8                wait
                0x000092ec                set_irq_priority
                0x000092fa                enable_irq
                0x000093ac                disable_irq
                0x00009444                Enable_FPU
                0x00009454                pll_init
                0x0000959c                default_isrnew
                0x000095bc                PITChannel_1new
                0x000095f8                SerialISRnew
                0x0000961c                lptmr_clear_registers
                0x0000962c                PIT1_interrupt
                0x00009664                Init_PIT1Timer
                0x00009674                PrintLogData
                0x00009676                StopLogDataPrinting
                0x00009678                RunTimeLogFreq
                0x0000967c                ExIntr1ISR
                0x00009700                ExIntr2ISR
                0x00009784                Init_ExtINT1
                0x000097e8                Channel1_Configuration
                0x0000985c                Init_ExtINT2
                0x000098c0                Channel2_Configuration
                0x00009938                Check_SoftGate_Bit
                0x00009a70                Check_Reset_Bit
                0x00009b2c                Check_Reset_Input
                0x00009bf0                HighSpeedCounter
                0x00009c00                Sys_Setup_Menu
                0x00009c02                Initialize_Brightness
                0x00009c04                Brightness_Cntrl
                0x00009c06                Limit_Value
                0x00009c08                Initialize_Contrast
                0x00009c20                Contrast_Cntrl
                0x00009c22                Scrn_Svr_Cntrl
                0x00009c24                Firmware_Erase
                0x00009c26                Appln_Erase
                0x00009c28                Retentive_Erase
                0x00009c2a                Beeper_Cntrl
                0x00009c2c                Soft_Reset
                0x00009c32                Read_Appln_flash_sector
                0x00009c34                Read_serial_settings
                0x00009c36                Read_SerialSettings
                0x00009c38                Current_Settings
                0x00009c3a                Update_serial_settings
                0x00009c3c                Update_serial_settings2
                0x00009c3e                ReadFourBytesPort
                0x00009c40                Initialize_Beeper
                0x00009c42                Copy_ScreenToLCDBuff
                0x00009c44                Copy_LCDBufftoScreen
                0x00009c46                ReadFactApplKeys
                0x00009c4a                ReadConfirmKeys
                0x00009c4e                Chk_Fact_Appln_Req
                0x00009c52                SystemInformation
                0x00009c58                SerialFlashReset
                0x00009c94                SerialFlashConfigureSPI0
                0x00009d4c                TxSSP0
                0x00009d68                RxSSP0
                0x00009d88                SerialFlashReadStatus
                0x00009db4                SerialFlashReadData
                0x00009ebc                SerialFlashWriteEnable
                0x00009ef4                SerialFlashTest
                0x00009ef8                RTC_Handle
                0x00009efc                Micro_RTC_Init
                0x00009efe                SETSCLK
                0x00009f00                SETSDAIO
                0x00009f02                SETRST
                0x00009f04                CLRSCLK
                0x00009f06                CLRSDAIO
                0x00009f08                CLRRST
                0x00009f0a                SDAasINPUT
                0x00009f0c                SDAasOUTPUT
                0x00009f0e                Micro_RTC_CallDelay
                0x00009f16                Micro_RTC_read_Data
                0x00009f1a                Micro_RTC_write_Data
                0x00009f1e                Micro_RTC_write_bit
                0x00009f20                Micro_RTC_read_bit
                0x00009f24                Micro_RTC_RTC_Read
                0x00009f28                Micro_RTC_Read_Day_Week_FrHW
                0x00009f2c                Micro_RTC_Read_Day_FrHW
                0x00009f30                Micro_RTC_Read_Month_FrHW
                0x00009f34                Micro_RTC_Read_Year_FrHW
                0x00009f38                Micro_RTC_Read_Hr_FrHW
                0x00009f3c                Micro_RTC_Read_Min_FrHW
                0x00009f40                Micro_RTC_Read_Sec_FrHW
                0x00009f44                Micro_RTC_BCDToInt
                0x00009f52                Micro_RTC_IntToBCD
                0x00009f68                Micro_RTC_RTC_Set
                0x0000a08c                Micro_RTC_UpdateDayOfWeek
                0x0000a090                Micro_RTC_RTC_Count_Zero
                0x0000a092                Micro_RTC_Valid_Date
                0x0000a134                Micro_RTC_Cal_Total_Days
                0x0000a190                Micro_RTC_RTC_Operation
                0x0000a34c                Micro_RTC_RTC_op_Count_Zero
                0x0000a350                PID_READ_INPUT
                0x0000a384                PID_UPDATE_OUTPUT
                0x0000a408                PID_Check_Absolute
                0x0000a412                PID_INIT
                0x0000a4ec                PID_OFF
                0x0000a514                PID_Check_Graph
                0x0000a56c                PID_ON
                0x0000a610                PID2_INIT
                0x0000a6ac                PID2_READ_INPUT
                0x0000a6e0                PID2_UPDATE_OUTPUT
                0x0000a74c                PID2_OFF
                0x0000a74e                PID2_Check_Absolute
                0x0000a766                PID2_Check_Graph
                0x0000a76a                NewPID2_Cal
                0x0000a900                PID2_ON
                0x0000a930                PID_CALL2
                0x0000a934                CalculateCrc4
                0x0000a998                Configure_Query
                0x0000ab38                Send_USB_Response
                0x0000b214                Communication_response
                0x0000b260                WDTHandler
                0x0000b298                VicInit
                0x0000b2d0                VicInstallIRQ
                0x0000b30c                VicInstallExtInt
                0x0000b348                VicUnInstallIRQ
                0x0000b364                WDTInit
                0x0000b3a0                ToggleWdi
                0x0000b3a2                Restart_by_Watchdog
                0x0000b3a4                FIQ_Enable
                0x0000b3dc                FIQ_EnableBROWN
                0x0000b3f4                CacheEnable
                0x0000b414                CacheDisable
                0x0000b498                HSPWM_Hardware_Config
                0x0000b49a                HSPWM
                0x0000b49c                HSPWM_Hardware_Channel_Config
                0x0000b49e                PWM_Handler1
                0x0000b4a0                PWM_Handler2
                0x0000b4a2                DisHSPWM
                0x0000b4b4                HSPWM_Ramp_Time
                0x0000b4b8                Send_Frame
                0x0000b560                SendHistAlarmData_Frame
                0x0000b5f4                UploadHistAlarmData
                0x0000b620                UploadByte
                0x0000b65c                SendEndFrame
                0x0000b698                CheckPLC
                0x0000b72c                SendLadder_Frame
                0x0000b7b0                Upload_Application
                0x0000b938                InitComPort2
                0x0000b93a                write_serial_byte2
                0x0000b958                write_serial_byte1
                0x0000b974                write_serial_byte4
                0x0000b976                read_serial_byte
                0x0000b978                write_serial_byte1_up
                0x0000b97a                write_serial_byte_upload
                0x0000b998                read_serial_byte_upload
                0x0000b99a                ClearTxd1
                0x0000b99c                SetTxd1
                0x0000b99e                ClearTxd2
                0x0000b9a0                SetTxd2
                0x0000b9a2                ClearPrintBuff
                0x0000b9c4                CallPrintDelay
                0x0000b9ec                SetDirectionPort1
                0x0000b9ee                SwitchDirection1
                0x0000b9f0                SetDirectionPort2
                0x0000ba2c                SwitchDirection2
                0x0000ba94                DisCom1
                0x0000ba96                DisCom2
                0x0000ba98                UART0SendArry
                0x0000ba9a                PrintByte
                0x0000ba9c                PrintShort
                0x0000ba9e                PrintInt
                0x0000baa0                UART3Handler
                0x0000bab2                CheckValidDownloadByte
                0x0000bb10                Disable_RcvInt
                0x0000bb64                Enable_MAM
                0x0000bb80                Disable_MAM
                0x0000bb8c                uart_init
                0x0000bc94                InitComPort
                0x0000bd3c                Printing2
                0x0000be84                Printing1
                0x0000bfcc                InitComPortMPI
                0x0000c020                uart_getchar
                0x0000c02c                uart_putchar
                0x0000c040                uart_getchar_present
                0x0000c048                in_char
                0x0000c050                out_char
                0x0000c05c                Timer2Disable
                0x0000c05e                mask_interrupts
                0x0000c060                CheckIfApplPresent
                0x0000c0dc                CheckIfLadderPresent
                0x0000c134                InitTimer
                0x0000c168                IBM_Download_Check
                0x0000c2bc                IbmComm
                0x0000c39c                Trend_Window
                0x0000c39e                Displaydigit
                0x0000c3a0                DisplayMajors
                0x0000c3a2                PaperMove
                0x0000c3a4                Calc_Point
                0x0000c3a6                Incrementtime
                0x0000c3a8                FillXaxislable
                0x0000c3aa                InitArray
                0x0000c3ac                PlotReverse
                0x0000c3ae                ReadTrendPara
                0x0000c3b0                TrendLable
                0x0000c3b2                GetYminmax
                0x0000c3b4                DispYlable
                0x0000c3b6                UnicodeTrend_Window
                0x0000c3b8                ReadUnicodeTrendPara
                0x0000c3ba                UnicodeTrendLable
                0x0000c3bc                Changename
                0x0000c3be                ClearHistAlrmRAM
                0x0000c444                ChangeONtime
                0x0000c446                ChangeOFFtime
                0x0000c508                ChangeAcktime
                0x0000c5c0                PreviousHistAlarm
                0x0000c5dc                NextHistAlarm
                0x0000c604                UpdateHistCounter
                0x0000c620                MoveToOldestHisAlm
                0x0000c638                MoveToLatestHisAlm
                0x0000c664                FirstHistAlarmColumn
                0x0000c680                PrevHistAlarmColumn
                0x0000c69c                NextHistAlarmColumn
                0x0000c6c4                LastHistAlarmColumn
                0x0000c6e8                AddAlarmToFlash
                0x0000c8ec                AddtoHistory
                0x0000c900                WriteAlarmToFlash
                0x0000c902                SearchAlarmFlashPtr
                0x0000c99c                LoadBackupMemory
                0x0000c99e                CheckMemory
                0x0000c9a0                SearchAlarm
                0x0000c9cc                HistAlarmWindow
                0x0000d534                Histtrend_Window
                0x0000d536                Scrollleft
                0x0000d538                Scrollright
                0x0000d53a                UnicodeHisttrend_Window
                0x0000d53c                LOG_DATA
                0x0000d53e                ReadLoggerInfo
                0x0000d540                Start_Logging
                0x0000d542                Stop_Logging
                0x0000d544                Clear_Log
                0x0000d546                StartChannel
                0x0000d548                StopChannel
                0x0000d54a                RefreshStop_Logging
                0x0000d54c                RefreshStart_Logging
                0x0000d550                InitTimerInt
                0x0000d560                DisTimer0
                0x0000d56c                enable_timer
                0x0000d584                disable_timer
                0x0000d59c                InitTimer0
                0x0000d5e0                LTI_ON
                0x0000d5e2                LTI_OFF
                0x0000d5f0                InitTimer3
                0x0000d5f2                DisTimer3
                0x0000d5f4                InitHighSpeedTimer
                0x0000d618                DisHighSpeedTimer
                0x0000d624                Anolog_Functions
                0x0000d628                ReadByte1
                0x0000d644                ReadBytePort1
                0x0000d660                ReadBytePort11
                0x0000d67c                ReadAppErr
                0x0000d67e                ReadOneByteCom1
                0x0000d688                ReadTwoBytesCom1
                0x0000d6a4                ReadFourBytesCom1
                0x0000d6d0                ReadOneByteCom2
                0x0000d6dc                ReadTwoBytesCom2
                0x0000d6f8                ReadFourBytesCom2
                0x0000d728                double_test
                0x0000d774                Write_VTOR
                0x0000d77e                TurnOnLed
                0x0000d888                TurnOffLed
                0x0000d9a4                ToggleLED
                0x0000d9bc                delay
                0x0000d9cc                delayd
                0x0000d9e4                delay1S
                0x0000da54                debug
                0x0000daac                Fill_Device_Info_Buffer
                0x0000db20                Read_RUNSTOP_Switch_PO
                0x0000db7c                CHECK_PLC_MODE
                0x0000dc78                ValidScreen
                0x0000dd0c                main
                0x0000ed80                Restart
                0x0000ed98                ReadSystemParameterPtr
                0x0000edd0                Retentive_Parameter_Read
                0x0000ef38                CheckPowerDownMemory
                0x0000efe8                WriteKeepMemFromFlash
                0x0000f214                PreparePowerDownSector
                0x0000f240                WriteKeepAndEraseFlash
                0x0000f24c                HardwareInit
                0x0000f2a4                InitRtc
                0x0000f2c0                Read_Day_Week_FrHW
                0x0000f2d4                Read_Day_FrHW
                0x0000f310                Read_Month_FrHW
                0x0000f34c                Read_Year_FrHW
                0x0000f388                Read_Hr_FrHW
                0x0000f3c4                Read_Min_FrHW
                0x0000f400                Read_Sec_FrHW
                0x0000f43c                UpdateDayOfWeek
                0x0000f49c                Read_Day_Week
                0x0000f4ac                Read_Day
                0x0000f4b8                Read_Month
                0x0000f4c4                Read_Year
                0x0000f4d0                CheckValidDate
                0x0000f5d4                Read_Hr
                0x0000f5e0                Read_Min
                0x0000f5ec                InitRAMRTC
                0x0000f62c                ChangeRTC
                0x0000f6d8                Read_Sec
                0x0000f6e4                ReadRTC
                0x0000f76c                DcrDay
                0x0000f788                DcrSec
                0x0000f7a0                DcrMin
                0x0000f7b8                DcrHr
                0x0000f7d0                DcrDate
                0x0000f800                DcrMonth
                0x0000f82c                DcrYr
                0x0000f854                IncrDay
                0x0000f86c                IncrSec
                0x0000f884                IncrMin
                0x0000f89c                IncrHr
                0x0000f8b4                IncrDate
                0x0000f8dc                IncrMonth
                0x0000f904                IncrYr
                0x0000f92c                write_Data
                0x0000f930                IOInit
                0x0000f932                ReadInputs
                0x0000f934                UpdateOutputs
                0x0000f936                ExIntr0ISR1
                0x0000f938                InitExInt
                0x0000f93a                EnExInt
                0x0000f93c                DisExInt
                0x0000f93e                ExIntr0ISR2
                0x0000f940                ExIntr1ISR2
                0x0000f942                Turn_off_All_Outputs
                0x0000f944                ReadIOConfigurationPtr
                0x0000f9c4                Rec_ser1
                0x0000fa28                SerialIRQ_UART0
                0x0000fa68                SQRT
                0x0000fa78                EXP
                0x0000fa7c                get_ptr
                0x0000faac                UnicodeText
                0x0000fb34                UnicodeBitButton
                0x0000fd10                UnicodeBitLamp
                0x0000fd12                UnicodeAnalogMeter
                0x000100d4                UnicodeKeypad
                0x000101dc                UnicodeMultibar
                0x0001044c                UnicodeWordLamp
                0x0001065c                UnicodeWordButton
                0x0001065e                UnicodeASCIIKeypad
                0x00010784                UnicodeCustomKeypad
                0x00010890                AnalogMeter
                0x00010892                Findmeterpoints
                0x00010b6c                WordButton
                0x00010b6e                WordLamp
                0x00010b70                MultiBar
                0x00010b72                Keypad
                0x00010b74                PushButton
                0x00010b76                BitLamp
                0x00010b78                Password_Keypad
                0x00010f40                Gettagvalue
                0x00010fec                UpdateShowHide
                0x000111a8                Getdatatype
                0x000111e4                TextWizard
                0x0001123c                PasswordEntry
                0x0001128c                ReadFloatvalue
                0x000112bc                CompPrevFloatVal
                0x00011314                CompPrevValinInt
                0x00011348                StoreFloat
                0x0001135c                GettagvalueForWizard
                0x00011424                ReadPrevFloat
                0x00011440                Bargraph
                0x000117a4                ClearDataEntry
                0x000117e8                CancleDataEntry
                0x00011804                SignKey
                0x00011844                Cursor
                0x00011880                ReadDEBuff
                0x000118a0                MoveCursorToRight
                0x0001193c                MoveCursorToLeft
                0x000119d8                WriteDEBuff
                0x000119f8                TurnBitOff
                0x00011a90                TurnBitOn
                0x00011b20                ShiftValLeft
                0x00011c14                AddValue
                0x00011c8c                AcknowledgeAlarm
                0x00011d94                PreviousAlarm
                0x00011de4                NextAlarm
                0x00011e48                MoveToOldestAlm
                0x00011e68                MoveToLatestAlm
                0x00011ea0                AddInNibleloop
                0x00011ecc                AddInNible
                0x00011fdc                SubFromNibleloop
                0x00012000                SubFromNible
                0x00012134                IncrValByNibble
                0x000121d8                IncrValBy1
                0x000122f8                DecrValByNibble
                0x000123d8                DecrValBy1
                0x000124fc                IncrBit
                0x00012528                DecrBit
                0x00012554                ClearPassword
                0x00012578                AcceptPassword
                0x0001282c                AbortPassword
                0x00012864                CheckWordLength
                0x00012888                AddMaths
                0x00012a20                CheckMathOprations
                0x00012bf0                ADDASCII
                0x00012c08                IncrDigiBy1
                0x00012d30                SUBASCII
                0x00012d48                DecrDigiBy1
                0x00012e3c                ReadTagsInASCIIDEBuff
                0x00012f50                WriteASCIIDEBuffToTag
                0x000133c0                ASCIIKey
                0x00013574                ClearString
                0x000135b8                Home
                0x000135e8                End
                0x00013668                Space
                0x000136dc                BackSpace
                0x0001373c                MoveASCIILeft
                0x0001377c                MoveASCIIRight
                0x000137d8                isspace
                0x000137e4                isdigit
                0x000137f2                my_atof
                0x000139dc                AcceptPopupDataEntry
                0x00014318                AcceptDataEntry
                0x00014d10                Keyaction
                0x00014dd0                KeyF
                0x00014dd4                KeyE
                0x00014dd8                KeyD
                0x00014ddc                KeyC
                0x00014de0                KeyB
                0x00014de4                KeyA
                0x00014de8                Key9
                0x00014dec                Key8
                0x00014df0                Key7
                0x00014df4                Key6
                0x00014df8                Key5
                0x00014dfc                Key4
                0x00014e00                Key3
                0x00014e04                Key2
                0x00014e08                Key0
                0x00014ea0                SignZero
                0x00014eec                Key1
                0x00014f84                SwitchPrevDataEntry
                0x0001500c                SwitchNxtDataEntry
                0x00015098                ClosePopupScreen
                0x00015148                DrawPixel
                0x0001514c                ReadPopupKeyLoc
                0x000151f4                ReadPopupKeyEndLoc
                0x000151f6                ShowPopup
                0x00015264                SerachDataEntryObj
                0x0001538c                ShowPopupScreen
                0x00015690                LoadPopupScreen
                0x00015708                RemovePopupScreen
                0x0001572c                HEXToUnsignedLong
                0x00015750                UnsignedLongToHEX
                0x00015770                FindObj
                0x000157c8                LoadTagPara
                0x00015818                MemInitialization
                0x000158f0                FillAlarmTables
                0x00015b00                UpdateBlockList
                0x00015df8                CheckEaglePLC
                0x00015e64                CheckTagError
                0x00015f0c                ReadDataFromTagTable
                0x00016d00                IsTextProduct
                0x00016d70                IsKeypadProduct
                0x00016e38                IsNumericKeypadProduct
                0x00016eba                IsPrizm230Product
                0x00016ebc                IsSoftRTCProduct
                0x00016ebe                IsPrizm10Product
                0x00016ec0                IsHio05Product
                0x00016ec2                IsPrizmProductWith20Char
                0x00016ec4                ReadTagName
                0x00016f6a                SearchTagName
                0x00016ff4                MY_atol
                0x00017032                SearchTag
                0x00017204                DispMsg_BOOT
                0x00017206                DispDriverMsg
                0x00017208                InitMsg
                0x000172a4                DispMsg
                0x000172d0                InnerBCDAddloop
                0x000172fc                Add_BCD
                0x000173ec                InnerBCDSubloop
                0x00017428                Subtract_BCD
                0x000174f0                BCD_Hex
                0x0001753c                Signed_Hex
                0x00017548                DetectShowHide
                0x00017680                Calc_float
                0x000176d0                IntToBCD
                0x000176e6                BCDToInt
                0x000176f4                DetectShowHideNew
                0x000177f8                Bitmap
                0x0001780c                Adv_Bitmap
                0x00017828                Ellipse
                0x000178ac                Line
                0x000179f8                RoundRectangle
                0x00017a7c                EmptyRectangle
                0x00017acc                Rectangle
                0x00017b90                DoubleBorder
                0x00017c70                SingleBorder
                0x00017d08                ReadRegText
                0x00017f30                Text
                0x0001808c                Time
                0x00018158                Date
                0x000182f4                Display_BCD
                0x000182f6                ShowData
                0x00018704                Display_Binary
                0x00018854                ShowFloatData
                0x00018a5c                ReadTagTable
                0x00018abc                ReadCoil
                0x00018d40                EditCoil
                0x00019098                DisplayEditCoil
                0x000192d8                Hex
                0x0001947c                RegToConvBuff
                0x000194ac                Display_HEX
                0x00019584                Display_Sin_int
                0x000196e0                Display_Un_int
                0x00019804                ConvBuffToReg
                0x00019834                DisplayASCII
                0x00019b84                SignMathOperation
                0x00019cc8                UnsignedMathOperation
                0x00019d88                DisplayASCIIDataEntry
                0x00019e7c                my_modf
                0x00019f18                my_pow
                0x00019f4c                Display_Float
                0x0001a288                DisplayDataEntry
                0x0001a8dc                DisplayNumericASCII
                0x0001ac54                ReadReg
                0x0001af30                EditReg
                0x0001b380                DisplayNumericASCIIDataEntry
                0x0001b4b0                ShowTime
                0x0001b538                AlarmWindow
                0x0001bea8                PrintAlarm
                0x0001c1ec                AcknowledgeAllAlarms
                0x0001c2c8                FillContainer
                0x0001c868                FirstAlarmColumn
                0x0001c884                PrevAlarmColumn
                0x0001c8a0                NextAlarmColumn
                0x0001c8c8                LastAlarmColumn
                0x0001c8ec                ReadProductID
                0x0001c8f2                ReadNoOfScreens
                0x0001c8f8                ReadPowerOnTask
                0x0001c930                ReadGlobleTask
                0x0001c970                ReadScreenPtr
                0x0001c9b8                ReadScreenPtr2
                0x0001c9fc                ReadScreenEndPtr
                0x0001ca4a                ReadKeyLoc
                0x0001ca88                ReadKeyEndLoc
                0x0001caa8                ReadLocalKeyLoc
                0x0001cb08                ReadLocalKeyEndLoc
                0x0001cb2c                ReadTagPtr
                0x0001cb40                ReadBeforeTaskPtr
                0x0001cb7c                ReadWhileTaskPtr
                0x0001cbc4                ReadAfterTaskPtr
                0x0001cc18                ReadAlarm
                0x0001cc66                ReadTotalAlarmBytes
                0x0001cc6c                ReadLogger
                0x0001cc7c                ReadNodeEnd
                0x0001cc92                ReadSerPort1Ptr
                0x0001cc96                ReadSerPort2Ptr
                0x0001cc9a                ReadScrSvrStatus
                0x0001cca0                ReadScrSvrTime
                0x0001ccb6                UpdateCommunicationStatusTags
                0x0001ccb8                goto_screen
                0x0001cce8                goto_nxtscreen
                0x0001cd80                goto_prvscreen
                0x0001ce30                PrintData
                0x0001ce88                Delay
                0x0001cee0                ExecutePLCLogicBlock
                0x0001cee2                show_screenobj
                0x0001d900                AssociatedScreen
                0x0001d988                show_screen
                0x0001dd74                DisplayScreen
                0x0001df84                ClearTask
                0x0001df98                InitScreenPara
                0x0001e144                CheckLocalKey
                0x0001e528                Checkkeyinpopup
                0x0001e578                CheckPopupKey
                0x0001e6d8                SendPort4Command
                0x0001e6da                ReadIndirectAddr
                0x0001e750                WriteToIntMemory
                0x0001e954                ReadFromIntMemory
                0x0001eb1c                NodePresent
                0x0001eb7c                SendPort3Command
                0x0001ecf8                SendPort2Command
                0x0001ef58                SendPort1Command
                0x0001f1b0                SendEntryToCMDQ
                0x0001f648                Wait
                0x0001f880                Copy_tag_LED
                0x0001f900                Copy_tag_STR
                0x0001fa14                SearchAssociatedScrPtr
                0x0001fa42                Decode_Regno
                0x0001fa44                Update_MW_Write_Bit
                0x0001fa68                WriteTag
                0x00020470                Update_BGTask
                0x00020af4                CopyRTCToPLCBlk
                0x00020fa0                CopyPLCBlkToRecipe
                0x000218bc                CopyRecipeToPLCBlk
                0x000221dc                Copy_tagB_tagA
                0x00022480                Toggle_bit
                0x000225cc                Turn_bit_off
                0x00022740                Turn_bit_on
                0x000228b4                Sub_tagB_tagA
                0x00022a84                Add_tagB_tagA
                0x00022c44                Add_Sub_cnstval_tag
                0x00022ebc                Write_val_tag
                0x00022ff0                Update_MW_Write_Bit_TimerInt
                0x00023014                CopyStrChar
                0x00023026                CopyStrCharToInt
                0x00023044                Swap_tagA_tagB
                0x000234f0                ServTask
                0x00023c58                DoTask
                0x00023c9c                KeyTask
                0x000240ec                GlobleTask
                0x000241f8                PowerOnTask
                0x000242c0                AfterHidingTask
                0x00024368                WhileShowingTask
                0x00024718                BeforeShowingTask
                0x0002487c                IBM2ISR
                0x000249cc                IBM1ISR
                0x00024b68                PutPixel
                0x00024b6a                Putdata
                0x00024c08                ChangeScale
                0x00024c0a                FontMultiplier
                0x00024c6c                Adjust_Byte
                0x00024da0                FindOffset
                0x00024dec                FindMask
                0x00024e74                DispCharbmp
                0x000250a8                DispText
                0x00025124                DispText2
                0x0002513e                ClearArea
                0x00025318                LinePattern
                0x000255d6                Getfillpattern
                0x00025644                FilledEllipse
                0x00025a24                FillPattern
                0x00025a70                FillBargraph
                0x00025e60                FilledRoundRectangle
                0x0002645c                CalculateHeight
                0x000264c0                PutBitmap
                0x0002663c                PutBitmap_AlarmText
                0x00026640                TchScan
                0x00026642                FormKeyCode
                0x0002669c                KeyScan
                0x000267e8                LocalDel
                0x000267ea                RefreshLed
                0x000267ec                TimerDelayHandler
                0x00026d20                Timer2DelayHandler
                0x00026d44                Timer3DelayHandler
                0x00026d46                Timer1DelayHandler
                0x00026d48                HighSpeedISR
                0x00026d4c                ServMaster1
                0x00026d60                ServComPlc1
                0x000273d8                ProcessSerialIntr1
                0x00027408                ServComPlc2
                0x00027a94                ServMaster2
                0x00027aa8                ProcessSerialIntr2
                0x00027ab8                KickStart1
                0x00027ae0                KickStart2
                0x00027b08                ASCII_Transmit1_760
                0x00027b40                ASCII_Transmit2_760
                0x00027b78                LoadModbusFirstAddr1
                0x00027be8                LoadModbusFirstAddr2
                0x00027c58                ReadFourBytesPort1
                0x00027cb0                ReadFourBytes1
                0x00027d08                ReadTwoBytes1
                0x00027d40                SearchBlockPort2
                0x00027eb4                SearchBlock2
                0x00027f50                ReadTwoBytesPort1
                0x00027f88                ReadTwoBytesPort11
                0x00027fac                ReadCommandQueuePort1
                0x00028044                ReadCommandQueue
                0x000280e0                ReadCommandRequestPort1
                0x000280f4                ReadCommandRequest
                0x00028108                ReadEntryToCommandQ2
                0x00028164                ReadEntryToCommandQ1
                0x000281c0                ShiftCommandQueuePort1
                0x000281d0                ShiftCommandQueue
                0x000281e0                IbmCommunication
                0x00028944                DriverDelayHandler
                0x000289fc                PortChecking
                0x00028a58                GetAsciiInfo
                0x00028c34                ReadBroadCastPtr
                0x00028d00                SearchTagName_1
                0x00028d90                SearchBlockPort1
                0x00028f2c                SearchBlock1
                0x00028fc8                ReadMit_MelsecPtr
                0x0002915c                StartPLCComm
                0x000296e8                ReadPLCCode
                0x0002976c                CheckForFailedNodes1
                0x0002984c                CheckIfNodePresentOnPort1
                0x00029898                UpdateTagStatus1
                0x000298e0                UpdateTagErrorStatus1
                0x0002993c                UpdateNodeErrorStatus1
                0x00029960                UpdateNodeStatus1
                0x00029984                ConfigurePort1ToIBM
                0x000299d4                CheckIfIBMonPort1
                0x00029a0c                SendFramesToRenuDriver1
                0x00029a94                SendWriteHeapToPort1
                0x00029afc                InitializeScreenChangePar1
                0x00029b68                ProcessDummyResponse1
                0x00029ce4                Port1DummyCommunication
                0x00029d5c                SendDummyFramesOnPort1
                0x00029eb0                SendReadFramesToPort1
                0x0002a04c                SearchFirstTag1
                0x0002a108                CheckForGe1
                0x0002a158                GetCommPar1
                0x0002a1d4                LoadNodeStatus1
                0x0002a1f4                ReadBroadCastInfo1
                0x0002a2ac                LoadNodeStatus
                0x0002a354                FillBroadCastCMDQ1
                0x0002a3ec                SendModbusSlaveResponse1
                0x0002a52c                UpdateTagErrorCRC1
                0x0002a5bc                UpdateTagError1
                0x0002a604                SearchBGTag
                0x0002a764                SendBGTaskCommand1
                0x0002a894                Decode_Regno1
                0x0002a940                UpdateBGStatusBit1
                0x0002aaf4                CheckSpecialPLC1
                0x0002ab64                UpdateRecipePrizmBlock1
                0x0002ad38                ReadRecipeData1
                0x0002b064                SendRecipeCommand1
                0x0002b32c                CheckSpecialPLCFW
                0x0002b384                CheckForFailedNodes2
                0x0002b464                CheckIfNodePresentOnPort2
                0x0002b4b0                UpdateTagStatus2
                0x0002b4f8                UpdateTagErrorStatus2
                0x0002b554                UpdateNodeErrorStatus2
                0x0002b578                UpdateNodeStatus2
                0x0002b59c                ConfigurePort2ToIBM
                0x0002b5ec                CheckIfIBMonPort2
                0x0002b624                SendFramesToRenuDriver2
                0x0002b6ac                InitializeScreenChangePar2
                0x0002b710                SendWriteHeapToPort2
                0x0002b778                ProcessDummyResponse2
                0x0002b8f4                Port2DummyCommunication
                0x0002b96c                SendDummyFramesOnPort2
                0x0002bab8                SendReadFramesToPort2
                0x0002bc58                SearchFirstTag2
                0x0002bd04                CheckForGe2
                0x0002bd54                GetCommPar2
                0x0002bdd0                FillBroadCastCMDQ2
                0x0002be60                ReadBroadCastInfo2
                0x0002bf34                SendModbusSlaveResponse2
                0x0002c074                UpdateTagError2
                0x0002c0bc                UpdateTagErrorCRC2
                0x0002c14c                SearchBGTag2
                0x0002c2b4                SendBGTaskCommand2
                0x0002c3f4                Decode_Regno2
                0x0002c4a0                UpdateBGStatusBit2
                0x0002c654                CheckSpecialPLC2
                0x0002c6c4                UpdateRecipePrizmBlock2
                0x0002c898                ReadRecipeData2
                0x0002cb70                SendRecipeCommand2
                0x0002ce30                Battery_BackupRAM_read
                0x0002ceb8                EEPROM_sequential_read
                0x0002cf1e                Battery_BackupRAM_write
                0x0002d084                eeprom_page_WriteBy
                0x0002d0ec                DisplayLadderMessage
                0x0002d130                DisplayAppliMessage
                0x0002d1a0                DisplayPowerOnMsg
                0x0002d1a2                DispCheckPLCMsg
                0x0002d210                DispScrnNotDefinMsg
                0x0002d250                DispPrintingMsg
                0x0002d290                WaitDelay
                0x0002d2b8                DisplayNodeNo
                0x0002d39c                DisplayNotAttachedNodes2
                0x0002d470                DisplayAttachedNodes2
                0x0002d550                DisplayNotAttachedNodes1
                0x0002d624                DisplayAttachedNodes1
                0x0002d704                DisplayDriverMsg
                0x0002d880                Display_HALTMODE_Messg
                0x0002d9a8                Display_HOLDMODE_Messg
                0x0002db40                Display_STOPMODE_Messg
                0x0002dcac                Display_Expansion_Status_Mesg
                0x0002dcae                Display_DataDwnld_Messg
                0x0002dcd4                Display_IOmismatch_Messg
                0x0002dda8                EPAdr
                0x0002ddba                WrCmd
                0x0002ddd8                WrCmdDat
                0x0002de08                RdCmdDat
                0x0002de2c                USB_Connect
                0x0002de44                USB_Reset
                0x0002deb4                USB_SetAddress
                0x0002ded8                USB_Init
                0x0002df58                USB_Configure
                0x0002df68                USB_EnableEP
                0x0002df82                USB_DisableEP
                0x0002dfa0                USB_StallEP
                0x0002dfbc                USB_ResetEP
                0x0002dfd6                USB_EnableEp4Ep5
                0x0002e07c                UsbGetData
                0x0002e0dc                USB_EPTx
                0x0002e14c                USB_Suspend
                0x0002e180                USB_WriteEP
                0x0002e1d8                USB_GetFrame
                0x0002e1fc                UsbEp0IntHandler
                0x0002e2cc                UsbHandler
                0x0002eafc                USBDownloadCheck
                0x0002eafe                SendAckOnUsbPort
                0x0002eb10                UsbRestart
                0x0002eb58                CheckUsbComm
                0x0002ed24                AddErrorToHistory
                0x0002edb0                LogErrorEventHistory
                0x0002ee50                CalculateEventPTR
                0x0002ee68                Fact_Appln
                0x0002ee6a                RTC_Synchronization_USB
                0x0002ee6c                ReadCalibKeyNew
                0x0002eec8                StoreKeyValNew
                0x0002ef00                CalKeyCalibNew
                0x0002efb4                ReadTsPress
                0x0002f018                UpdateBatteryStatus
                0x0002f050                Read_Mode
                0x0002f108                Touch_CalculateLCDPoints
                0x0002f20c                Small_Delay
                0x0002f218                WriteTchPort
                0x0002f26c                ReadTchPort
                0x0002f27c                TchCMD
                0x0002f8c4                Read_TS_Value
                0x0002f8f8                ReadCrossKeyNew
                0x0002f9f0                TSCalibrationNew
                0x0002fb98                TchScanNew
                0x0002fca4                TCH_GPIO
                0x0002fce4                InstallGpioTchInt
                0x0002fd1c                TOUCH_INT
 vectors.o(.text)
 .text          0x0002fd94        0x0 vectors.o
 *(.rodata)
 .rodata        0x0002fd94        0x7 two.o
                0x0002fd94                CrossBytes
 .rodata        0x0002fd9b      0x647 three.o
                0x0002fe9f                font1x
                0x00030174                CrcHiVal
                0x00030274                CrcLoVal
                0x00030374                abUsbDDResp
                0x00030386                abUsbConfResp
                0x000303a6                abUsbString0
                0x000303aa                abUsbString1
                0x000303be                abUsbString2
                0x000303d0                abUsbString3
 *fill*         0x000303e2        0x2 00
 .rodata        0x000303e4      0x188 D:\ToolChain3\arm-none-eabi\lib\thumb2\libm.a(lib_a-e_rem_pio2.o)
 .rodata        0x0003056c       0x18 D:\ToolChain3\arm-none-eabi\lib\thumb2\libm.a(lib_a-ef_exp.o)
 *fill*         0x00030584        0x4 00
 .rodata        0x00030588       0x50 D:\ToolChain3\arm-none-eabi\lib\thumb2\libm.a(lib_a-k_rem_pio2.o)
 .rodata        0x000305d8        0x4 D:\ToolChain3\arm-none-eabi\lib\thumb2\libc.a(lib_a-impure.o)
                0x000305d8                _global_impure_ptr
 *(.rodata*)
 .rodata.str1.1
                0x000305dc       0x45 two.o
 .rodata.str1.1
                0x00030621      0x4e4 three.o
                                0x52b (size before relaxing)
 .rodata.str1.1
                0x00000000      0x4e4 77701a.o
                                 0x15 (size before relaxing)
 .rodata.str1.1
                0x00000000       0x15 77702a.o
 .rodata.str1.1
                0x00030b05       0x1d Product_Info.o
 *fill*         0x00030b22        0x2 00
 .rodata.str1.4
                0x00030b24        0x5 D:\ToolChain3\arm-none-eabi\lib\thumb2\libm.a(lib_a-w_sqrt.o)
                                  0x8 (size before relaxing)
 *fill*         0x00030b29        0x3 00
 .rodata.str1.4
                0x00030b2c        0x5 D:\ToolChain3\arm-none-eabi\lib\thumb2\libm.a(lib_a-wf_exp.o)
                                  0x8 (size before relaxing)
 *fill*         0x00030b31        0x3 00
 .rodata.str1.4
                0x00030b34        0x4 D:\ToolChain3\arm-none-eabi\lib\thumb2\libc.a(lib_a-impure.o)
 *(.glue_7)
 .glue_7        0x00000000        0x0 linker stubs
 *(.glue_7t)
 .glue_7t       0x00000000        0x0 linker stubs
 *(.text)
 .text          0x00030b38      0x188 77701a.o
                0x00030b38                PLC1ByteReceived
                0x00030bc0                CheckEndOfSentFrame1
                0x00030c18                PLC1trmit
                0x00030c68                EnableTransmit1
                0x00030c6a                DisableTransmit1
                0x00030c6c                PlcCommIni1
                0x00030c6e                ServPlc1RdHeap
                0x00030c70                ServPlc1WrHeap
                0x00030c72                StartCommPlc1
                0x00030c9c                Driver1Retry
                0x00030c9e                DummyCommunication1
                0x00030ca2                GetNextByteInResponse1
                0x00030ca4                MonitorMode1
                0x00030ca6                SendNextAttachFrame1
                0x00030ca8                Plc1WrHeap
                0x00030caa                Plc1RdHeap
                0x00030cac                UpdateTag1Data
                0x00030cae                UpdateReadCommandQ1
                0x00030cb0                CheckPlc1WrResp
                0x00030cb2                PlcComm1Check
                0x00030cb4                Com1DelayTask
                0x00030cb6                SendFirstAttachFrame1
                0x00030cb8                SendCpuId1
                0x00030cba                CheckDummyHeapResponse1
                0x00030cbc                CheckResponse1
                0x00030cbe                UpdateRecipeData1
 .text          0x00030cc0      0x198 77702a.o
                0x00030cc0                PLC2ByteReceived
                0x00030d48                CheckEndOfSentFrame2
                0x00030da0                PLC2trmit
                0x00030e00                EnableTransmit2
                0x00030e02                DisableTransmit2
                0x00030e04                PlcCommIni2
                0x00030e06                StartCommPlc2
                0x00030e30                ServPlc2RdHeap
                0x00030e32                ServPlc2WrHeap
                0x00030e34                DummyCommunication
                0x00030e38                Driver2Retry
                0x00030e3a                GetNextByteInResponse2
                0x00030e3c                MonitorMode2
                0x00030e3e                SendFirstAttachFrame2
                0x00030e40                SendCpuId2
                0x00030e42                SendNextAttachFrame2
                0x00030e44                Plc2WrHeap
                0x00030e46                Plc2RdHeap
                0x00030e48                UpdateTag2Data
                0x00030e4a                CheckPlc2WrResp
                0x00030e4c                UpdateReadCommandQ2
                0x00030e4e                PlcComm2Check
                0x00030e50                Com2DelayTask
                0x00030e52                CheckDummyHeapResponse2
                0x00030e54                CheckResponse2
                0x00030e56                UpdateRecipeData2
 .text          0x00030e58        0x2 ASCIIComm.o
                0x00030e58                ASCIICommunication_Call
 *fill*         0x00030e5a        0x2 00
 .text          0x00030e5c       0xa0 Product_Info.o
                0x00030e5c                PRODUCT_NAME
                0x00030ef4                CALIBRATION
                0x00030ef6                COPY_RAM_TO_ROM
                0x00030ef8                ReadEEP2By
 .text          0x00030efc       0x90 D:\ToolChain3\arm-none-eabi\lib\thumb2\libm.a(lib_a-s_cos.o)
                0x00030efc                cos
 *fill*         0x00030f8c        0x4 00
 .text          0x00030f90      0x128 D:\ToolChain3\arm-none-eabi\lib\thumb2\libm.a(lib_a-s_floor.o)
                0x00030f90                floor
 .text          0x000310b8       0xd0 D:\ToolChain3\arm-none-eabi\lib\thumb2\libm.a(lib_a-s_modf.o)
                0x000310b8                modf
 .text          0x00031188       0x98 D:\ToolChain3\arm-none-eabi\lib\thumb2\libm.a(lib_a-s_sin.o)
                0x00031188                sin
 .text          0x00031220       0xac D:\ToolChain3\arm-none-eabi\lib\thumb2\libm.a(lib_a-w_sqrt.o)
                0x00031220                sqrt
 .text          0x000312cc       0xf0 D:\ToolChain3\arm-none-eabi\lib\thumb2\libm.a(lib_a-wf_exp.o)
                0x000312cc                expf
 *fill*         0x000313bc        0x4 00
 .text          0x000313c0      0x450 D:\ToolChain3\arm-none-eabi\lib\thumb2\libm.a(lib_a-e_rem_pio2.o)
                0x000313c0                __ieee754_rem_pio2
 .text          0x00031810      0x1c0 D:\ToolChain3\arm-none-eabi\lib\thumb2\libm.a(lib_a-e_sqrt.o)
                0x00031810                __ieee754_sqrt
 .text          0x000319d0      0x228 D:\ToolChain3\arm-none-eabi\lib\thumb2\libm.a(lib_a-ef_exp.o)
                0x000319d0                __ieee754_expf
 .text          0x00031bf8      0x250 D:\ToolChain3\arm-none-eabi\lib\thumb2\libm.a(lib_a-k_cos.o)
                0x00031bf8                __kernel_cos
 .text          0x00031e48      0x7a8 D:\ToolChain3\arm-none-eabi\lib\thumb2\libm.a(lib_a-k_rem_pio2.o)
                0x00031e48                __kernel_rem_pio2
 .text          0x000325f0      0x168 D:\ToolChain3\arm-none-eabi\lib\thumb2\libm.a(lib_a-k_sin.o)
                0x000325f0                __kernel_sin
 .text          0x00032758        0x8 D:\ToolChain3\arm-none-eabi\lib\thumb2\libm.a(lib_a-s_fabs.o)
                0x00032758                fabs
 .text          0x00032760       0x90 D:\ToolChain3\arm-none-eabi\lib\thumb2\libm.a(lib_a-s_fpclassify.o)
                0x00032760                __fpclassifyd
 .text          0x000327f0        0x0 D:\ToolChain3\arm-none-eabi\lib\thumb2\libm.a(lib_a-s_lib_ver.o)
 .text          0x000327f0        0x4 D:\ToolChain3\arm-none-eabi\lib\thumb2\libm.a(lib_a-s_matherr.o)
                0x000327f0                matherr
 *fill*         0x000327f4        0x4 00
 .text          0x000327f8      0x108 D:\ToolChain3\arm-none-eabi\lib\thumb2\libm.a(lib_a-s_scalbn.o)
                0x000327f8                scalbn
 .text          0x00032900       0x10 D:\ToolChain3\arm-none-eabi\lib\thumb2\libm.a(lib_a-sf_finite.o)
                0x00032900                finitef
 .text          0x00032910       0x14 D:\ToolChain3\arm-none-eabi\lib\thumb2\libm.a(lib_a-s_copysign.o)
                0x00032910                copysign
 .text          0x00032924        0xc D:\ToolChain3\arm-none-eabi\lib\thumb2\libc.a(lib_a-errno.o)
                0x00032924                __errno
 .text          0x00032930        0x0 D:\ToolChain3\arm-none-eabi\lib\thumb2\libc.a(lib_a-impure.o)
 .text          0x00032930       0xb4 D:\ToolChain3\arm-none-eabi\lib\thumb2\libc.a(lib_a-memset.o)
                0x00032930                memset
 .text          0x000329e4      0x148 D:\ToolChain3\lib\gcc\arm-none-eabi\4.5.2\libgcc.a(_divsi3.o)
                0x000329e4                __divsi3
                0x000329e4                __aeabi_idiv
                0x00032b0c                __aeabi_idivmod
 .text          0x00032b2c        0x4 D:\ToolChain3\lib\gcc\arm-none-eabi\4.5.2\libgcc.a(_dvmd_tls.o)
                0x00032b2c                __aeabi_idiv0
                0x00032b2c                __aeabi_ldiv0
 .text          0x00032b30      0x41c D:\ToolChain3\lib\gcc\arm-none-eabi\4.5.2\libgcc.a(_arm_addsubdf3.o)
                0x00032b30                __aeabi_drsub
                0x00032b38                __aeabi_dsub
                0x00032b38                __subdf3
                0x00032b3c                __aeabi_dadd
                0x00032b3c                __adddf3
                0x00032e4c                __floatunsidf
                0x00032e4c                __aeabi_ui2d
                0x00032e70                __floatsidf
                0x00032e70                __aeabi_i2d
                0x00032e98                __aeabi_f2d
                0x00032e98                __extendsfdf2
                0x00032ed8                __floatundidf
                0x00032ed8                __aeabi_ul2d
                0x00032eec                __floatdidf
                0x00032eec                __aeabi_l2d
 .text          0x00032f4c      0x49c D:\ToolChain3\lib\gcc\arm-none-eabi\4.5.2\libgcc.a(_arm_muldivdf3.o)
                0x00032f4c                __aeabi_dmul
                0x00032f4c                __muldf3
                0x000331dc                __divdf3
                0x000331dc                __aeabi_ddiv
 .text          0x000333e8      0x144 D:\ToolChain3\lib\gcc\arm-none-eabi\4.5.2\libgcc.a(_arm_cmpdf2.o)
                0x000333e8                __gtdf2
                0x000333e8                __gedf2
                0x000333f0                __ltdf2
                0x000333f0                __ledf2
                0x000333f8                __nedf2
                0x000333f8                __eqdf2
                0x000333f8                __cmpdf2
                0x00033480                __aeabi_cdrcmple
                0x0003349c                __aeabi_cdcmpeq
                0x0003349c                __aeabi_cdcmple
                0x000334b4                __aeabi_dcmpeq
                0x000334cc                __aeabi_dcmplt
                0x000334e4                __aeabi_dcmple
                0x000334fc                __aeabi_dcmpge
                0x00033514                __aeabi_dcmpgt
 .text          0x0003352c       0x5c D:\ToolChain3\lib\gcc\arm-none-eabi\4.5.2\libgcc.a(_arm_fixdfsi.o)
                0x0003352c                __aeabi_d2iz
                0x0003352c                __fixdfsi
 .text          0x00033588       0x54 D:\ToolChain3\lib\gcc\arm-none-eabi\4.5.2\libgcc.a(_arm_fixunsdfsi.o)
                0x00033588                __aeabi_d2uiz
                0x00033588                __fixunsdfsi
 .text          0x000335dc       0xa0 D:\ToolChain3\lib\gcc\arm-none-eabi\4.5.2\libgcc.a(_arm_truncdfsf2.o)
                0x000335dc                __truncdfsf2
                0x000335dc                __aeabi_d2f
 .text          0x0003367c      0x2ac D:\ToolChain3\lib\gcc\arm-none-eabi\4.5.2\libgcc.a(_arm_addsubsf3.o)
                0x0003367c                __aeabi_frsub
                0x00033684                __subsf3
                0x00033684                __aeabi_fsub
                0x00033688                __aeabi_fadd
                0x00033688                __addsf3
                0x00033844                __aeabi_ui2f
                0x00033844                __floatunsisf
                0x0003384c                __aeabi_i2f
                0x0003384c                __floatsisf
                0x0003386c                __aeabi_ul2f
                0x0003386c                __floatundisf
                0x0003387c                __aeabi_l2f
                0x0003387c                __floatdisf
 .text          0x00033928      0x2f8 D:\ToolChain3\lib\gcc\arm-none-eabi\4.5.2\libgcc.a(_arm_muldivsf3.o)
                0x00033928                __mulsf3
                0x00033928                __aeabi_fmul
                0x00033ac0                __aeabi_fdiv
                0x00033ac0                __divsf3
 .text          0x00033c20      0x114 D:\ToolChain3\lib\gcc\arm-none-eabi\4.5.2\libgcc.a(_arm_cmpsf2.o)
                0x00033c20                __gesf2
                0x00033c20                __gtsf2
                0x00033c28                __lesf2
                0x00033c28                __ltsf2
                0x00033c30                __nesf2
                0x00033c30                __eqsf2
                0x00033c30                __cmpsf2
                0x00033c94                __aeabi_cfrcmple
                0x00033ca4                __aeabi_cfcmpeq
                0x00033ca4                __aeabi_cfcmple
                0x00033cbc                __aeabi_fcmpeq
                0x00033cd4                __aeabi_fcmplt
                0x00033cec                __aeabi_fcmple
                0x00033d04                __aeabi_fcmpge
                0x00033d1c                __aeabi_fcmpgt
 .text          0x00033d34       0x5c D:\ToolChain3\lib\gcc\arm-none-eabi\4.5.2\libgcc.a(_arm_fixsfsi.o)
                0x00033d34                __aeabi_f2iz
                0x00033d34                __fixsfsi
                0x00033d90                _etext = .
                0x00033d90                end = .
                0x00033d90                PROVIDE (end, .)

.vfp11_veneer   0x00033d90        0x0
 .vfp11_veneer  0x00000000        0x0 linker stubs

.v4_bx          0x00033d90        0x0
 .v4_bx         0x00000000        0x0 linker stubs

.InitializedVariables
                0x1fff6000      0x1f0 load address 0x00033d90
                0x1fff6000                _data = .
 *(.data)
 .data          0x1fff6000        0x0 MplcISR.o
 .data          0x1fff6000        0x0 one.o
 .data          0x1fff6000       0x28 two.o
                0x1fff6000                StBlockAdd
                0x1fff6004                EndBlockAdd
                0x1fff6008                FlashAddr
                0x1fff600c                MemWrite
                0x1fff6010                dwProgramAddr
                0x1fff6014                dwSizeProgramAddr
                0x1fff6018                dw256Limit
                0x1fff601c                dwStartSector
                0x1fff6020                dwEndSector
                0x1fff6024                Buzz
 .data          0x1fff6028       0xcc three.o
                0x1fff6028                gBrightness
                0x1fff6029                current_baud1
                0x1fff602a                current_baud2
                0x1fff602b                current_dbits1
                0x1fff602c                current_dbits2
                0x1fff602d                current_parity1
                0x1fff602e                current_parity2
                0x1fff602f                current_sbits1
                0x1fff6030                current_sbits2
                0x1fff6031                sys_flag
                0x1fff6032                sys_flag2
                0x1fff6034                Internal_Tag_DataBase
                0x1fff6038                InputCoil
                0x1fff603c                OutputCoil
                0x1fff6040                InternalCoil
                0x1fff6044                Config_MW_Register
                0x1fff6048                TimerRegister
                0x1fff604c                CounterRegister
                0x1fff6050                Data_Reg_Arry
                0x1fff6054                Sys_Reg_Arry
                0x1fff6058                SystemCoil
                0x1fff605c                TimerCoil
                0x1fff6060                CounterCoil
                0x1fff6064                IndexRegister
                0x1fff6068                PID_Sample
                0x1fff606a                PID2_Sample
                0x1fff606c                Ladder_Start_ptr
                0x1fff6070                Ladder_Size_ptr
                0x1fff6074                IBM_Download_Flags1
                0x1fff6079                IBM_Download_Flags2
                0x1fff6080                Ilc
                0x1fff6088                Backlit_FP4020
                0x1fff6090                My_Int_Max
                0x1fff6098                My_Tag
                0x1fff60a0                Temp_Float_1
                0x1fff60a8                Temp_Float_2
                0x1fff60b0                ScrSwWait_BGTask
                0x1fff60b1                T10msTC
                0x1fff60b4                Com1Timespan
                0x1fff60b6                Com2Timespan
                0x1fff60b8                TchTable
                0x1fff60e8                TchPtr
                0x1fff60ec                TchPtrA
                0x1fff60f0                BatDelay
 .data          0x1fff60f4        0x4 vectors.o
                0x1fff60f4                __cs3_stack
 .data          0x1fff60f8        0x0 77701a.o
 .data          0x1fff60f8        0x0 77702a.o
 .data          0x1fff60f8        0x0 ASCIIComm.o
 .data          0x1fff60f8        0x0 Product_Info.o
 .data          0x1fff60f8        0x0 D:\ToolChain3\arm-none-eabi\lib\thumb2\libm.a(lib_a-s_cos.o)
 .data          0x1fff60f8        0x0 D:\ToolChain3\arm-none-eabi\lib\thumb2\libm.a(lib_a-s_floor.o)
 .data          0x1fff60f8        0x0 D:\ToolChain3\arm-none-eabi\lib\thumb2\libm.a(lib_a-s_modf.o)
 .data          0x1fff60f8        0x0 D:\ToolChain3\arm-none-eabi\lib\thumb2\libm.a(lib_a-s_sin.o)
 .data          0x1fff60f8        0x0 D:\ToolChain3\arm-none-eabi\lib\thumb2\libm.a(lib_a-w_sqrt.o)
 .data          0x1fff60f8        0x0 D:\ToolChain3\arm-none-eabi\lib\thumb2\libm.a(lib_a-wf_exp.o)
 .data          0x1fff60f8        0x0 D:\ToolChain3\arm-none-eabi\lib\thumb2\libm.a(lib_a-e_rem_pio2.o)
 .data          0x1fff60f8        0x0 D:\ToolChain3\arm-none-eabi\lib\thumb2\libm.a(lib_a-e_sqrt.o)
 .data          0x1fff60f8        0x0 D:\ToolChain3\arm-none-eabi\lib\thumb2\libm.a(lib_a-ef_exp.o)
 .data          0x1fff60f8        0x0 D:\ToolChain3\arm-none-eabi\lib\thumb2\libm.a(lib_a-k_cos.o)
 .data          0x1fff60f8        0x0 D:\ToolChain3\arm-none-eabi\lib\thumb2\libm.a(lib_a-k_rem_pio2.o)
 .data          0x1fff60f8        0x0 D:\ToolChain3\arm-none-eabi\lib\thumb2\libm.a(lib_a-k_sin.o)
 .data          0x1fff60f8        0x0 D:\ToolChain3\arm-none-eabi\lib\thumb2\libm.a(lib_a-s_fabs.o)
 .data          0x1fff60f8        0x0 D:\ToolChain3\arm-none-eabi\lib\thumb2\libm.a(lib_a-s_fpclassify.o)
 .data          0x1fff60f8        0x1 D:\ToolChain3\arm-none-eabi\lib\thumb2\libm.a(lib_a-s_lib_ver.o)
                0x1fff60f8                __fdlib_version
 .data          0x1fff60f9        0x0 D:\ToolChain3\arm-none-eabi\lib\thumb2\libm.a(lib_a-s_matherr.o)
 .data          0x1fff60f9        0x0 D:\ToolChain3\arm-none-eabi\lib\thumb2\libm.a(lib_a-s_scalbn.o)
 .data          0x1fff60f9        0x0 D:\ToolChain3\arm-none-eabi\lib\thumb2\libm.a(lib_a-sf_finite.o)
 .data          0x1fff60f9        0x0 D:\ToolChain3\arm-none-eabi\lib\thumb2\libm.a(lib_a-s_copysign.o)
 .data          0x1fff60f9        0x0 D:\ToolChain3\arm-none-eabi\lib\thumb2\libc.a(lib_a-errno.o)
 *fill*         0x1fff60f9        0x3 00
 .data          0x1fff60fc       0xf4 D:\ToolChain3\arm-none-eabi\lib\thumb2\libc.a(lib_a-impure.o)
                0x1fff60fc                _impure_ptr
 .data          0x1fff61f0        0x0 D:\ToolChain3\arm-none-eabi\lib\thumb2\libc.a(lib_a-memset.o)
 .data          0x1fff61f0        0x0 D:\ToolChain3\lib\gcc\arm-none-eabi\4.5.2\libgcc.a(_divsi3.o)
 .data          0x1fff61f0        0x0 D:\ToolChain3\lib\gcc\arm-none-eabi\4.5.2\libgcc.a(_dvmd_tls.o)
 .data          0x1fff61f0        0x0 D:\ToolChain3\lib\gcc\arm-none-eabi\4.5.2\libgcc.a(_arm_addsubdf3.o)
 .data          0x1fff61f0        0x0 D:\ToolChain3\lib\gcc\arm-none-eabi\4.5.2\libgcc.a(_arm_muldivdf3.o)
 .data          0x1fff61f0        0x0 D:\ToolChain3\lib\gcc\arm-none-eabi\4.5.2\libgcc.a(_arm_cmpdf2.o)
 .data          0x1fff61f0        0x0 D:\ToolChain3\lib\gcc\arm-none-eabi\4.5.2\libgcc.a(_arm_fixdfsi.o)
 .data          0x1fff61f0        0x0 D:\ToolChain3\lib\gcc\arm-none-eabi\4.5.2\libgcc.a(_arm_fixunsdfsi.o)
 .data          0x1fff61f0        0x0 D:\ToolChain3\lib\gcc\arm-none-eabi\4.5.2\libgcc.a(_arm_truncdfsf2.o)
 .data          0x1fff61f0        0x0 D:\ToolChain3\lib\gcc\arm-none-eabi\4.5.2\libgcc.a(_arm_addsubsf3.o)
 .data          0x1fff61f0        0x0 D:\ToolChain3\lib\gcc\arm-none-eabi\4.5.2\libgcc.a(_arm_muldivsf3.o)
 .data          0x1fff61f0        0x0 D:\ToolChain3\lib\gcc\arm-none-eabi\4.5.2\libgcc.a(_arm_cmpsf2.o)
 .data          0x1fff61f0        0x0 D:\ToolChain3\lib\gcc\arm-none-eabi\4.5.2\libgcc.a(_arm_fixsfsi.o)
                0x1fff61f0                _edata = .

.NonInitializedVariables
                0x1fff61f0     0x4a60 load address 0x00033f80
                0x1fff61f0                _bstart = .
 *(COMMON)
 COMMON         0x1fff61f0      0x45c two.o
                0x1fff61f0                x2_loc
                0x1fff61f4                MemRead
                0x1fff61f8                rows
                0x1fff61fa                x1_loc
                0x1fff61fc                font
                0x1fff61fe                y1_loc
                0x1fff6200                X1Loc
                0x1fff6201                LCD_Buff
                0x1fff6601                PageSel
                0x1fff6604                Fi
                0x1fff6608                Font_ptr
                0x1fff660c                Y1Loc
                0x1fff660d                X2Loc
                0x1fff6610                byt1
                0x1fff6614                Fj
                0x1fff6618                Buzzer_On
                0x1fff661a                y2_loc
                0x1fff661c                PrevScrSvrTime
                0x1fff661e                Y2Loc
                0x1fff6620                COMMAND
                0x1fff6634                RESULT
                0x1fff6648                FloatRet
 *fill*         0x1fff664c        0x4 00
 COMMON         0x1fff6650     0x44b8 three.o
                0x1fff6650                ASCII_counter1
                0x1fff6652                RXD_STX_F1
                0x1fff6654                EnableScrSvrPass
                0x1fff6655                FirstLoopGlobleTask
                0x1fff6656                FrameCount2
                0x1fff6658                fltbarval
                0x1fff665c                TXFrameEnd1
                0x1fff665d                NewFrame1
                0x1fff665e                Needle_pivot_x
                0x1fff6660                digit
                0x1fff6688                GetIBMID2
                0x1fff6689                HideData
                0x1fff668a                dyabs
                0x1fff668c                RXD_COMTD_BIT2
                0x1fff668e                BGCMDQ1
                0x1fff6756                RxEnableBit1
                0x1fff6758                fptr
                0x1fff675c                WaitTillFlag
                0x1fff675d                FailedNodeCnt2
                0x1fff675e                Port8BlockCount
                0x1fff6760                Port5BlockCount
                0x1fff6762                Value_Interframe_Delay1
                0x1fff6764                PressEvent
                0x1fff6765                PID_Enablebit
                0x1fff6768                PrizmPort2Addr
                0x1fff676c                var5
                0x1fff6770                SPL_PLC_TASK
                0x1fff6771                StatusByte1
                0x1fff6772                tskcd_lo
                0x1fff6773                Protocol2
                0x1fff6774                ListOfBlocksPort1
                0x1fff67b4                AddrReadBytePort1
                0x1fff67b8                DisplayTextColor
                0x1fff67ba                cury
                0x1fff67bc                yyy
                0x1fff67be                NumOfBlocks
                0x1fff67bf                ObjCnt
                0x1fff67c0                FGStringLength1
                0x1fff67c4                PLC4Tag
                0x1fff67c5                dat
                0x1fff67c6                TempIntrPort1
                0x1fff67c7                NoOfNodes
                0x1fff67c8                Port1Var4
                0x1fff67ca                RESET_FLAG
                0x1fff67cc                del
                0x1fff67d0                AlarmRecordCounter
                0x1fff67d4                actualAngle
                0x1fff67d8                Tcount
                0x1fff67dc                Alarmpage
                0x1fff67dd                ModbusCoil1
                0x1fff67de                DontShiftCmdQ2
                0x1fff67e0                ExpPtr
                0x1fff67e4                TextFont
                0x1fff67e5                WriteError2
                0x1fff67e6                KeyBottomY
                0x1fff67e8                TimeSpan1
                0x1fff67e9                SendModSlaveFrame2
                0x1fff67ea                ReadKey
                0x1fff67ec                textlength
                0x1fff67ed                NumericASCII_decimal_pt
                0x1fff67f0                Curr_Flash_Alarm_Ptr
                0x1fff67f4                DataLoggingInProcess2
                0x1fff67f8                mcg_clk_hz
                0x1fff67fc                TempTxAddr2
                0x1fff67fe                Enable_Control
                0x1fff6800                Signature1
                0x1fff6802                D_E_obj_no
                0x1fff6803                Micro_RTC_count
                0x1fff6804                StartingAddr1
                0x1fff6813                TagTable3
                0x1fff6814                Max_RecCntGlob2
                0x1fff6818                BackupMemoryFull
                0x1fff6819                AnimationBytes
                0x1fff681c                MaxValue
                0x1fff6820                MW_Reg_OffsetTimerInt
                0x1fff6824                BGTaskPtr_W3
                0x1fff6828                core_clk_mhz
                0x1fff682c                Plc1Dat1Lo
                0x1fff6830                Micro_RTC_FAIL
                0x1fff6834                DisplayAreaFont
                0x1fff6836                XVAL2
                0x1fff6838                PID_Blocks
                0x1fff6839                MediumFlash
                0x1fff683c                ObjPtr
                0x1fff6840                ReadRequest2
                0x1fff6841                SrcTagPort
                0x1fff6842                ScrSvrDelay
                0x1fff6844                Port2NodeAddr
                0x1fff6864                Result
                0x1fff6865                RightRange
                0x1fff6868                PrizmPort1Addr
                0x1fff686c                y1_sav
                0x1fff686e                PrizmSizeCode2
                0x1fff6870                two_b_sqr
                0x1fff6874                Rate_Timer_Elapse_Flag
                0x1fff6875                Total_CRC
                0x1fff6876                FlashRate
                0x1fff6878                NoBitmap
                0x1fff6880                integer
                0x1fff6888                preset_flag
                0x1fff68a6                Direction
                0x1fff68a7                AttachDone2
                0x1fff68a8                BeforeDelayTaskLoc
                0x1fff68ac                BGStatusBit1
                0x1fff68ad                reg_hi_hi
                0x1fff68ae                StartComm2
                0x1fff68b0                HSPWM_Prev_Freq
                0x1fff68b4                altxtlen
                0x1fff68b8                TagCount1
                0x1fff68bc                x_2
                0x1fff68bd                D_E_ObjType
                0x1fff68be                Alarmsort
                0x1fff68bf                WritingCMDQ3
                0x1fff68c0                RTC_Recipe_Delay_Port1
                0x1fff68c1                WritingCMDQ2
                0x1fff68c2                ScrSvrEnbl
                0x1fff68c3                bit_pos
                0x1fff68c4                Delay_1ms
                0x1fff68c8                Ilc0
                0x1fff68cc                iterm
                0x1fff68fc                DwordIntFormatPort2
                0x1fff68fd                TagPresent
                0x1fff6900                PLCRegAddr_num
                0x1fff6904                flg1sec
                0x1fff6905                NodeIsFailed1
                0x1fff6906                RxStartAdd2
                0x1fff6908                pix_hi_low
                0x1fff690c                BroadCastBlocks2
                0x1fff6910                Access_Counter
                0x1fff6914                y_num
                0x1fff6916                Del100mSDun
                0x1fff6917                DelayAfterBreakCount2
                0x1fff6918                Plc1Dat2Lo
                0x1fff691c                PrevWaitTillFlag
                0x1fff6920                Xbv2
                0x1fff6922                RecipeStrFG2
                0x1fff6968                BGTaskCommandSent1
                0x1fff696a                obj_no
                0x1fff696c                ValidData
                0x1fff696e                TXD_NoOfETXBytes1
                0x1fff6970                key_end_loc
                0x1fff6974                j
                0x1fff6976                Global_no_of_pressed_task
                0x1fff6978                RetCntOverRunError1_W
                0x1fff6979                RUN_STOP
                0x1fff697a                byt_sent
                0x1fff697c                x
                0x1fff697e                SerialFlashSem
                0x1fff697f                BGRegLength1
                0x1fff6980                Printing_Pending
                0x1fff6984                AttachFailedNodesCnt1
                0x1fff6988                LocalReleasedTaskBytes
                0x1fff698a                NodePresentOnPort2
                0x1fff698b                FunCode2
                0x1fff698c                TXDClearCount2
                0x1fff6990                CMDQ2_TagNamePointer
                0x1fff6994                alarmchange
                0x1fff6995                TagErrorFlag1
                0x1fff6996                RXD_ETX_F2
                0x1fff6998                temp_reg_no
                0x1fff699c                RecipeCntr2
                0x1fff69a0                RTC_To_PLC
                0x1fff69a8                Xoffset2
                0x1fff69aa                RXD_After_break2
                0x1fff69ac                PrevRxState2
                0x1fff69ad                ByteFormatPort4
                0x1fff69ae                Enable_Focus_Static_DataEntry
                0x1fff69b0                ExpBlockCount
                0x1fff69b4                off_txt_length
                0x1fff69b5                ModbusNoOfReg2
                0x1fff69b6                GetResponse2
                0x1fff69b8                line_prev_x1
                0x1fff6ab6                RXD_ETX_ARRAY1
                0x1fff6abc                RXD_NoOfSTXBytes1
                0x1fff6abe                n
                0x1fff6ac0                GlobalTempPointer
                0x1fff6ac4                Protocol3
                0x1fff6ac5                RecCmdExec2
                0x1fff6ac6                coord
                0x1fff6ace                Port1NodeAddr
                0x1fff6aee                Parity1
                0x1fff6af0                RecipeRTC2
                0x1fff6cf0                SendBroadCastCmd1
                0x1fff6cf1                ProcessSerialStack
                0x1fff6cf2                PlcDat1Lo
                0x1fff6cf3                RecTaskCommandSent2
                0x1fff6cf4                NodeAttached3
                0x1fff6cf8                Plc1Comm
                0x1fff6cf9                off_lo
                0x1fff6cfc                LogInfo
                0x1fff6d6c                reg_no
                0x1fff6d70                Drv2Del1S
                0x1fff6d72                DataEntrypobj_no
                0x1fff6d74                WD_Feed_Sequence_Incomplete
                0x1fff6d75                ind_addr_tag_4
                0x1fff6d78                pterm
                0x1fff6da8                WaitDelayFlag
                0x1fff6dac                PID_OPR_B
                0x1fff6db0                RecipeCount2
                0x1fff6db4                bval
                0x1fff6db6                TXDClearFlag1
                0x1fff6db7                ExpConnCnt
                0x1fff6db8                y_2
                0x1fff6db9                StopModeMessageDisplayed
                0x1fff6dba                maskbyte
                0x1fff6dbb                DelayAfterBreakCount1
                0x1fff6dbc                PopupDataEntry
                0x1fff6dbd                StartingAddr
                0x1fff6dcc                ConnectToExp
                0x1fff6dcd                GeFlag2
                0x1fff6dd0                RateVal
                0x1fff6de4                ClearASCIIString
                0x1fff6de5                HaltModeMessageDisplayed
                0x1fff6de6                RetentiveSize_Timer
                0x1fff6de8                GlobalPressTaskBytes
                0x1fff6dea                TempTxBytes1
                0x1fff6dec                Print
                0x1fff6dee                GlobalPressedTaskBytes
                0x1fff6df0                ScreenIntrPtr
                0x1fff6df4                Config_MW_Reg_Write_Bit
                0x1fff6ebc                ExpRetryCount
                0x1fff6ec0                Wait_Till_Task_Present
                0x1fff6ec4                Usb_Frame_No
                0x1fff6ec8                RecipeBlockLen1
                0x1fff6ecc                HiAddr
                0x1fff6ed0                Max_RecCntWhile2
                0x1fff6ed4                Max_RecCntGlob1
                0x1fff6ed8                UsbDownloadRestartFlag
                0x1fff6ed9                sign_flag
                0x1fff6edc                DriverNum2
                0x1fff6ee0                task_byte
                0x1fff6ee1                SkipGlobalTask2
                0x1fff6ee2                Yav2
                0x1fff6ee4                MPIonComm1
                0x1fff6ee5                ScreenChangePort3
                0x1fff6ee6                ZeroScrnfrscrnsvr
                0x1fff6ee7                ERROR_MODE_ENTRY
                0x1fff6ee8                TXD_NoOfSTXBytes1
                0x1fff6eea                Retry_Count1
                0x1fff6eec                HI
                0x1fff6eed                ColorAnimation
                0x1fff6eee                FastFlash
                0x1fff6ef0                KeyY
                0x1fff6ef2                RXD_STX_ARRAY1
                0x1fff6ef7                PrevFrameLength1
                0x1fff6ef8                PowerOnGlobal3
                0x1fff6ef9                HSPWM_RunBit
                0x1fff6efa                MPIBlockRead
                0x1fff6efc                PrevYdb
                0x1fff6f00                LinePosTag
                0x1fff6f01                Serial_Com2Int
                0x1fff6f02                Prevalarmpos
                0x1fff6f04                no_of_digit
                0x1fff6f08                ListOfBlocksPort2
                0x1fff6f48                PrevRxState1
                0x1fff6f4a                BGCMDQ2
                0x1fff7012                Prevmonth
                0x1fff7013                Prevmin
                0x1fff7014                ReadAsciiData2
                0x1fff705c                ScreenTobLoad
                0x1fff7060                F3_Touched
                0x1fff7061                Prev_PID_Enablebit
                0x1fff7063                Dec_Cursor
                0x1fff7064                PrizmCoil2
                0x1fff7065                Data_Download_Mode
                0x1fff7068                TagCount2
                0x1fff706c                BGTask1
                0x1fff71ec                RTC_Recipe_Delay_Flag
                0x1fff71ed                PrevNodeIntr
                0x1fff71ee                DecimalPt
                0x1fff71ef                Port1Plc
                0x1fff71f5                COL_COM
                0x1fff71f6                Sys_PLC1
                0x1fff71f7                SpecialEagleDriver1
                0x1fff71f8                grpno
                0x1fff71f9                Del500mSDun
                0x1fff71fa                Port3IsSlave
                0x1fff71fb                TempCount1Port1
                0x1fff71fc                PressedEvent
                0x1fff7200                ExpBlockPtr
                0x1fff7204                aval
                0x1fff7206                RXD_NoOfETXBytes2
                0x1fff7208                prevlanguage
                0x1fff7209                StopBit2
                0x1fff720c                Max_BGTaskPtr_W1
                0x1fff7210                ScreenBlocksFinished2
                0x1fff7214                core_clk_khz
                0x1fff7218                ByteToBeSend2
                0x1fff7219                NodeAddCount2
                0x1fff721c                Datalength
                0x1fff7220                RecipeLen1
                0x1fff7224                Del1S
                0x1fff7226                FirstDataByte2
                0x1fff7228                HighLimit
                0x1fff722a                firstalno
                0x1fff722b                ReturnFrmScrnSvr
                0x1fff722c                ROW_BY
                0x1fff722d                RECIPE_TYPE2
                0x1fff722e                Flashsize
                0x1fff722f                format
                0x1fff7230                ModbusSlave2
                0x1fff7232                BlockNo
                0x1fff7234                GlobalBlockCntr2
                0x1fff7238                Max_BGTaskPtr_W3
                0x1fff723c                ASA_Byte_RXD1
                0x1fff723e                NoOfBytes
                0x1fff7240                LO
                0x1fff7242                TXD_CRCSelection1
                0x1fff7244                DownloadCount
                0x1fff7246                BitOperation
                0x1fff7247                ASCII_D_E_Buff
                0x1fff7346                Trendclr
                0x1fff7347                next_prev_flag
                0x1fff7348                AddrPort1Byte
                0x1fff734c                IbmDelCount2
                0x1fff734e                D_E_SignData
                0x1fff734f                WithinOrOutside
                0x1fff7350                IBMFlag2
                0x1fff7351                PlcDat2Hi
                0x1fff7352                RetryCount2
                0x1fff7354                CopyTagSTR_InGlobal_Ptr
                0x1fff7358                dxabs
                0x1fff735a                Bkcolor
                0x1fff735c                TXD_NoOfETXBytes2
                0x1fff7360                f1ptr
                0x1fff7364                DnCoil
                0x1fff7374                ackalrm
                0x1fff7376                EXP_CMDQ1
                0x1fff73a8                SendModRespFromMainLoop1
                0x1fff73a9                HistTotalNoOfClms
                0x1fff73aa                Rate_Counter_Elapse_Flag
                0x1fff73ac                DEDataType
                0x1fff73ae                Drv1Del1S
                0x1fff73b0                fill_factor
                0x1fff73b4                DYVtg2
                0x1fff73b6                AttachDone1
                0x1fff73b7                DontIncrementMessageID2
                0x1fff73b8                AlarmNo
                0x1fff73c8                ADFrame
                0x1fff73c9                Languagechange
                0x1fff73ca                ERROR_CODE
                0x1fff73cb                LED_3
                0x1fff73cc                RXD_CRCSelection1
                0x1fff73ce                BuffCount
                0x1fff73cf                D_E_HideData
                0x1fff73d0                dwTempGlobal
                0x1fff73d4                Global_no_of_press_task
                0x1fff73d6                DownloadCount1
                0x1fff73d8                HSPWM_Channel_Config
                0x1fff73d9                groups
                0x1fff73e0                hor_rad
                0x1fff73e8                Lable
                0x1fff73ec                four_b_sqr
                0x1fff73f0                textmask1
                0x1fff73f1                RECIPETASK_Status2
                0x1fff73f2                Value_Slient_STX_Time2
                0x1fff73f4                tagvalue
                0x1fff73f8                FontMultiX
                0x1fff73fa                Bumpless_Transfer
                0x1fff73fc                ty2
                0x1fff73fe                UpdateTab
                0x1fff73ff                datatype
                0x1fff7400                Del250mSDun
                0x1fff7401                Port2IsSlave
                0x1fff7402                InValKey
                0x1fff7403                ByteFormatPort1
                0x1fff7404                PrintingData1
                0x1fff7406                STR_0
                0x1fff7408                Micro_RTC_OP_HOUR
                0x1fff740c                FrameEnd2
                0x1fff7410                PID2_OPR_B
                0x1fff7414                TagStatus1
                0x1fff7434                bit1
                0x1fff7435                TXD_STX_ARRAY2
                0x1fff743a                Parity2
                0x1fff743b                DownloadFlag
                0x1fff743c                TxOutputBit1
                0x1fff743e                ind_addr_tag_2
                0x1fff743f                Data_Entry_Obj_Cnt
                0x1fff7440                CurrRxState1
                0x1fff7441                LedState_OP3
                0x1fff7442                x2_sav
                0x1fff7444                NodeIntrPort1
                0x1fff7446                SendCntr2
                0x1fff7448                Response_Bit2
                0x1fff744a                Exp
                0x1fff7450                HSPWM_Channel2_NoOfPulses
                0x1fff7454                FunCode1
                0x1fff7458                PrevSignData
                0x1fff74d8                ScreenIntrPtrPort1
                0x1fff74dc                CommTimeOut1
                0x1fff74de                PrevKey2
                0x1fff74e0                IbmDelCount1
                0x1fff74e2                PLCTag
                0x1fff74e3                FailedNodeCnt1
                0x1fff74e4                TxOutputBit2
                0x1fff74e6                ScnSvrbaklitOff
                0x1fff74e8                PopupTopy
                0x1fff74ea                DestTagPort
                0x1fff74ec                TXD_Checksum_method2
                0x1fff74ee                BGTaskExec1
                0x1fff74ef                Redrawing
                0x1fff74f0                ExpListOfBlocks
                0x1fff74f4                Link
                0x1fff74f6                TempTxAddr1
                0x1fff74f8                RegLengthInCMDQ2
                0x1fff74fc                Tag_no
                0x1fff7500                Time5msec
                0x1fff7504                PLCOnPort2
                0x1fff7508                SendBroadCastCmd2
                0x1fff750a                LastScreen
                0x1fff750c                NamePointer1
                0x1fff7510                LedState_OP6
                0x1fff7511                Flash
                0x1fff7512                cnt
                0x1fff7514                Border
                0x1fff7515                PortIntr
                0x1fff7516                RespNok2
                0x1fff7518                RetentiveSize_BW_Reg
                0x1fff751a                y_1
                0x1fff751b                Length2Received
                0x1fff751c                WriteCount1
                0x1fff751d                position
                0x1fff751e                TagTableUpdated3
                0x1fff751f                Delay5_sec_flag
                0x1fff7520                LogDataPrintBuff
                0x1fff7521                KeyPressed1
                0x1fff7522                NoOfBits1
                0x1fff7523                PpupDEOn
                0x1fff7524                BGTASK_Status2
                0x1fff7525                NoOfBits2
                0x1fff7526                ty1
                0x1fff7528                Micro_RTC_YEAR
                0x1fff752c                SQRT_ptr
                0x1fff7530                DelayFlag
                0x1fff7531                RetCntOverRunError2_W
                0x1fff7532                passtx1
                0x1fff7534                CurrBlockInPort2
                0x1fff7536                reg_hi_lo
                0x1fff7538                passbgcolor
                0x1fff753a                PowerOnAttach1
                0x1fff753c                RecCntWhile1
                0x1fff7540                Device_Info_Buffer
                0x1fff7580                ScreenChangePort1
                0x1fff7581                NumOfBytesPort1
                0x1fff7582                RCntPort1
                0x1fff7583                RTC_OFFSET1
                0x1fff7584                Alarmgrp
                0x1fff758c                Hist_Severity
                0x1fff758d                F2_Touched
                0x1fff758e                Prevsec
                0x1fff758f                PrevCharState
                0x1fff75d0                CMDQ4
                0x1fff75d8                ver_rad
                0x1fff75e0                Returnfrmscrsvr
                0x1fff75e2                HistAlarm_X_EdgeLimit
                0x1fff75e4                xxx
                0x1fff75e6                Value_RXD_After_break1
                0x1fff75e8                Port2BlockCount
                0x1fff75ea                Newdraw
                0x1fff75eb                DisplayBitmap
                0x1fff75ec                Restore_screen_ptr
                0x1fff75f0                Temp
                0x1fff75f1                flashscrollspeed
                0x1fff75f2                BroadCastEnable2
                0x1fff75f4                TXD_COMTD_BIT1
                0x1fff75f8                Micro_RTC_ANS_SECOND
                0x1fff75fc                PrevKey1
                0x1fff75fe                RecFrameLength1
                0x1fff7600                ExtRecordCounter
                0x1fff7602                Prevyear
                0x1fff7602                ExpTagStatus
                0x1fff7603                PrizmPort4Addr
                0x1fff7604                NodeType
                0x1fff7605                Loggroups
                0x1fff7605                ExpPortErrorStatus
                0x1fff7606                Xpv2
                0x1fff7608                FrameProcessTime
                0x1fff760c                MELSEC_Port1_Info
                0x1fff764c                l
                0x1fff764e                k
                0x1fff7650                language
                0x1fff7654                msg
                0x1fff7658                Sampling_time
                0x1fff7670                RxEnabled1
                0x1fff7672                NodePointer
                0x1fff7674                StartRTC
                0x1fff7678                AlarmPointer
                0x1fff767c                periph_clk_khz
                0x1fff7680                GetIBMID1
                0x1fff7684                AttachFailedNodesCnt2
                0x1fff7688                ModbusCoil3
                0x1fff7688                Style
                0x1fff7689                FailedNodeAddr2
                0x1fff768a                FrameNotCompleted2
                0x1fff768b                PrevPlcError
                0x1fff76cc                Micro_RTC_OP_MONTH
                0x1fff76d0                var1
                0x1fff76d4                HOLD_Previous_PLC_Mode
                0x1fff76d5                BroadCastModbusTag2
                0x1fff76d6                Focus
                0x1fff76d7                comp1
                0x1fff76d8                Y
                0x1fff76dc                Logdata_ptr
                0x1fff76e0                temp
                0x1fff76e1                PutInMonitorMode1
                0x1fff76e4                BGTaskCount3
                0x1fff76e8                Plc2Present
                0x1fff76e9                BGNodeAddr
                0x1fff76ea                WritePlc2
                0x1fff76ec                tag_bytes
                0x1fff76ee                Sys_Print1
                0x1fff76f0                loc_y
                0x1fff76f2                NumericASCII_Int
                0x1fff76fc                UpperCase
                0x1fff76fd                CommandReqPort1
                0x1fff76fe                FHWT_KEYPAD_TEST
                0x1fff7700                PrizmTagAddress2
                0x1fff7704                temp_hi
                0x1fff7708                bit_cntr
                0x1fff770a                comp
                0x1fff770b                CurrRxState2
                0x1fff770c                EXP_TIMEOUT_CNT
                0x1fff770d                BufferFullAction
                0x1fff770e                COL_UNIT
                0x1fff7710                Alarm_X_EdgeLimit
                0x1fff7712                dispdata
                0x1fff7713                WritePtr
                0x1fff7714                Sign_Zero
                0x1fff7715                Read_Write
                0x1fff7716                ExpNodeAddr
                0x1fff7717                PLC2Tag
                0x1fff7718                RecTaskPtr1
                0x1fff771c                PLCTagAddress1
                0x1fff772b                ModbusMultipleWrite2
                0x1fff7730                Value_Response_Time2
                0x1fff7732                PLCTagAddress2
                0x1fff7741                ModSlaveReset1
                0x1fff7742                DYPix2
                0x1fff7744                TempFlag1
                0x1fff7745                CommTimeOut3
                0x1fff7746                topleft_x
                0x1fff7748                Del250mS
                0x1fff774a                passty1
                0x1fff774c                bgcolor
                0x1fff774e                Port4GlobalBlockCount
                0x1fff7750                ScrSvrAck
                0x1fff7752                RXD_No_Bytes2
                0x1fff7754                tagvaluefloat
                0x1fff7758                SamplingTime_Enablebit
                0x1fff775a                BroadCastBlockType2
                0x1fff775c                DXPix2
                0x1fff7760                Parity_Addr_local_buff2
                0x1fff7764                Configure_Query_No
                0x1fff7768                DataEntry_obj_ptr
                0x1fff776c                readLSR1
                0x1fff7770                ReleaseEvent
                0x1fff7771                UpdateNodeStatusPort1
                0x1fff7772                backlit
                0x1fff7773                BmpMsg
                0x1fff7774                BGTaskPtr_G3
                0x1fff7778                Data_entry_cnt
                0x1fff7779                BaudRate2
                0x1fff777a                Response1Completed
                0x1fff777c                ExecuteLogic
                0x1fff7780                Port5GlobalBlockCount
                0x1fff7782                RetentiveSize_Data
                0x1fff7784                Crc4Lo
                0x1fff7785                blanktext
                0x1fff7788                Micro_RTC_OP_MINUTE
                0x1fff778c                RTCError
                0x1fff778d                Key_ptr
                0x1fff778e                TouchScreenLoopBack
                0x1fff7790                MitMelsec_Ptr
                0x1fff7794                LedState_COM1
                0x1fff7795                AlarmNo_E
                0x1fff77a5                DummyComm2
                0x1fff77a6                Drv1Timeout
                0x1fff77a8                ScrPassword
                0x1fff77ac                PLCRegAddr_num2
                0x1fff77b0                border
                0x1fff77b2                ScreenBkColor
                0x1fff77b4                var4
                0x1fff77b6                Prev_PSTR
                0x1fff77b8                PopupCnt
                0x1fff77ba                S
                0x1fff77d2                NodesForExp
                0x1fff77d4                searchpointerPort1
                0x1fff77d8                prev_y
                0x1fff77da                LocalPressTaskBytes
                0x1fff77dc                ScrSvrTime
                0x1fff77de                HistPtr
                0x1fff77fe                curx
                0x1fff7800                Port1IsSlave
                0x1fff7801                state
                0x1fff7802                RCntPort2
                0x1fff7803                LedState_OP2
                0x1fff7804                x_1
                0x1fff7805                CMDQAttachDone1
                0x1fff7808                BGTask2
                0x1fff7988                _abRxBuff
                0x1fff7a94                LowHigh
                0x1fff7a95                PlcMode1
                0x1fff7a98                MinValue
                0x1fff7a9c                bcdcarry
                0x1fff7aa0                Exp_Interbyte_Delay_Count
                0x1fff7aa4                RXD_Checksum_method2
                0x1fff7aa6                ASCIIStringLength
                0x1fff7aa7                Popup
                0x1fff7aa8                RECIPETASK_Status1
                0x1fff7aac                CMDQEth
                0x1fff7ae4                Dbits_Addr_local_buff2
                0x1fff7ae8                EXPInitDone
                0x1fff7aea                ReceiveBuffLength2
                0x1fff7aec                ToggleVar
                0x1fff7aed                ASCIIFormat
                0x1fff7aee                TaskIgnore
                0x1fff7af0                Tag_count
                0x1fff7af2                NodePresentOnPort1
                0x1fff7af3                RetCntOverRunError2_R
                0x1fff7af4                ROW_COM
                0x1fff7af8                Screen_no
                0x1fff7afc                Del20mS
                0x1fff7afd                ScreenBlocksFinished1
                0x1fff7afe                Protocol4
                0x1fff7b00                TimeOut1
                0x1fff7b04                Micro_RTC_ANS_MINUTE
                0x1fff7b08                AttachFailedNodesCntExp
                0x1fff7b09                ScreenChangeFlag2
                0x1fff7b0a                tskcd_hi
                0x1fff7b0c                BroadCastModbusAdd1
                0x1fff7b10                PrevBlockSizePort1
                0x1fff7b11                All_Usb_Frame_Completed
                0x1fff7b12                GlobalKeyFound
                0x1fff7b13                Alarm_History_Buffer
                0x1fff7b2c                Module_Number
                0x1fff7b40                number
                0x1fff7b41                TimerCounterFlag
                0x1fff7baf                Sys_IBM
                0x1fff7bb0                Port1ErrorStatus
                0x1fff7bd0                temp_byt
                0x1fff7bd1                TagTable2
                0x1fff7dd2                RxStartAdd1
                0x1fff7dd4                InitExpansion
                0x1fff7dd5                EXEC_PLC_ASCII2
                0x1fff7dd8                SpRegister
                0x1fff7e28                RecipeStr1
                0x1fff7e6e                ReadRequest1
                0x1fff7e70                Addr2BytePort1
                0x1fff7e74                BGStr1
                0x1fff7eba                WordLength
                0x1fff7ebb                LoAddr
                0x1fff7ebc                CurrBlock
                0x1fff7ebe                AttachFailedNodesEnable1
                0x1fff7ebf                PrevNodeAddress1
                0x1fff7ec0                LocalRelease
                0x1fff7ec1                SendFirstByte
                0x1fff7ec2                WritePlc1
                0x1fff7ec4                obj_type
                0x1fff7ec6                ScreenType
                0x1fff7ec7                font_size
                0x1fff7ec8                Parity_Addr_local_buff
                0x1fff7ecc                carry
                0x1fff7ece                CMDPtr
                0x1fff7ed0                sdy
                0x1fff7ed2                Wait_for_PLCData
                0x1fff7ed3                BGStatusBit2
                0x1fff7ed4                PutInMonitorMode2
                0x1fff7ed5                DummyScan
                0x1fff7ed8                abUsbBuffer
                0x1fff7f1c                LED_1
                0x1fff7f1e                rem1
                0x1fff7f20                BGStrLen2
                0x1fff7f21                DataType
                0x1fff7f22                WritingCMDQ1
                0x1fff7f23                BuffCount1
                0x1fff7f24                StartComm1
                0x1fff7f26                RxNoBytes2
                0x1fff7f28                hor_byte
                0x1fff7f2a                ASCII_counter2
                0x1fff7f2c                Totaliser_Count
                0x1fff7f40                TagTable4
                0x1fff7f41                IBMRxCounter2
                0x1fff7f42                BGCMDQ2_Rec
                0x1fff800a                ReadDone2
                0x1fff800c                BroadCastBlocks1
                0x1fff8010                TaskIgnore2
                0x1fff8012                KeyBottomX
                0x1fff8014                ReadWrite1
                0x1fff8018                Sbits_Addr_local_buff
                0x1fff801c                sdx
                0x1fff801e                SendModSlaveFrame1
                0x1fff801f                GlobalRelease
                0x1fff8020                Download_Byte
                0x1fff8021                FONT_UNIT
                0x1fff8022                WriteCMDQAttachDone2
                0x1fff8024                STR_1
                0x1fff8026                StartDummComm1
                0x1fff8028                Comm5BuffRead
                0x1fff802c                alarms
                0x1fff802e                IbmTimeOut1
                0x1fff8030                ListOfBlocksPort4
                0x1fff8034                DownloadFlag3
                0x1fff8036                Signature2
                0x1fff8038                screen_ptr
                0x1fff803c                BroadCastBlockType1
                0x1fff803e                AddrRead4BytePort1
                0x1fff8040                se
                0x1fff8041                Host_enumerated_device
                0x1fff8044                Global_temp_hi
                0x1fff8048                Power_On_Flag
                0x1fff804c                Data_entry_var
                0x1fff8050                new_y
                0x1fff8052                Port2PlcRegLen
                0x1fff8072                SendSerialMonRespFromMainLoop1
                0x1fff8074                BroadCastDataAdd2
                0x1fff8078                CurrentRateVal
                0x1fff8088                bottomright_y
                0x1fff808a                TXDClearCount1
                0x1fff808b                UpdatingBlockList
                0x1fff808c                ExpScreenChange
                0x1fff808d                fontlocation
                0x1fff808e                wdt_counter
                0x1fff808f                TotalNoHisAlmInWindow
                0x1fff8090                coil_bit
                0x1fff8092                temp1
                0x1fff8094                RAMLogStart
                0x1fff8098                ProductID
                0x1fff809a                BarGraphOn
                0x1fff809b                ModbusNoOfReg1
                0x1fff809c                RegLenght1
                0x1fff80a0                Rate_Counter_Count
                0x1fff80b4                LoggerPointer
                0x1fff80b8                RegLength1
                0x1fff80b9                TotalNoOfClms
                0x1fff80ba                BGTaskDelayFlag
                0x1fff80bc                top_x
                0x1fff80be                CMDQ1
                0x1fff80f0                wtaskflag
                0x1fff80f4                Port1Var
                0x1fff80f8                IBMRxCounter1
                0x1fff80f9                TXFrameEnd2
                0x1fff80fa                lead_zero_blank
                0x1fff80fc                FrameEnd1
                0x1fff80fd                RECTaskExec1
                0x1fff80fe                StopPrinting
                0x1fff80ff                ScrnsvrEnabled
                0x1fff8100                Micro_RTC_op_count
                0x1fff8101                KeyPressed
                0x1fff8102                y2_sav
                0x1fff8104                RecTaskPtr2
                0x1fff8108                TmoPort2
                0x1fff810c                PowerOnGlobal2
                0x1fff810d                ver_byte
                0x1fff810e                RecipeStrFG1
                0x1fff8154                RXD_NoOfCRCBytes2
                0x1fff8156                Port1BlockCount
                0x1fff8158                RXD_ETX_F1
                0x1fff815c                RecCntGlob3
                0x1fff8160                IgnoreSampleFlag
                0x1fff8161                NoOfDisplayChar
                0x1fff8162                p_task
                0x1fff8164                ScreenTobLoad_Ptr
                0x1fff8168                NeedleValue
                0x1fff816c                BGTaskCommandSent2
                0x1fff8170                PID_ferror
                0x1fff8260                f15ptr
                0x1fff8264                BlockCommand_Read
                0x1fff8265                LogON
                0x1fff8268                vikas
                0x1fff826c                i
                0x1fff826d                Eventcounter
                0x1fff826e                Botoffset
                0x1fff8270                KeyTopX
                0x1fff8272                DwordFormatPort1
                0x1fff8273                off_hi
                0x1fff8274                Del10mS
                0x1fff8275                TagTable5
                0x1fff8276                passindex
                0x1fff8277                Port4IsSlave
                0x1fff8278                BGTaskPtr_G1
                0x1fff827c                newdraw
                0x1fff827d                IbmMode2
                0x1fff827e                TaskIgnore1
                0x1fff827f                TempFlag2
                0x1fff8280                PrevRecFrameLength2
                0x1fff8282                Checksum_Error_Bit2
                0x1fff8284                KeyX
                0x1fff8286                textstyle
                0x1fff8288                RecFrameLength2
                0x1fff828a                BlockCommand
                0x1fff828c                Micro_RTC_OP_FAIL
                0x1fff8290                Port7GlobalBlockCount
                0x1fff8292                AttachFailedNodesEnable2
                0x1fff8294                RXD_After_break1
                0x1fff8296                xx
                0x1fff8298                da
                0x1fff8299                PrizmCoil
                0x1fff829a                IgnoreGlobalTask
                0x1fff829c                Ext_HistPtrOffset
                0x1fff82a0                PrevNodeIntrPort1
                0x1fff82a1                ReadAsciiData1
                0x1fff82e8                Max_BGTaskPtr_G3
                0x1fff82ec                DownloadFlag1
                0x1fff82ed                SignFlag
                0x1fff82f0                Del0S
                0x1fff82f4                TxNoBytes2
                0x1fff82f6                Previous_PLC_Mode
                0x1fff82f8                alarmpos
                0x1fff82fa                Upload_FP4030_Buff
                0x1fff82fe                Port
                0x1fff8300                ind_addr_tag_5
                0x1fff8301                ScreenFound
                0x1fff8302                Task_Load
                0x1fff8303                FrameCount1
                0x1fff8304                PrintDone
                0x1fff8305                Plc4Present
                0x1fff8306                fillpattern
                0x1fff8307                Alarmstatechange
                0x1fff8308                Store_w_task
                0x1fff830c                RXD_ON_bit1
                0x1fff830e                NumOfBytes
                0x1fff830f                Block2UpdatingStarted
                0x1fff8310                Ydiff2
                0x1fff8312                line_prev_y2
                0x1fff8410                BGStr2
                0x1fff8456                COL_BY
                0x1fff8457                FramePartiallyReceived1
                0x1fff8458                Value_Retry_Count2
                0x1fff845a                PopupKeypad
                0x1fff845c                rem
                0x1fff845e                StopDataEntry
                0x1fff8460                KeyBuffer
                0x1fff8470                ModhiAddr
                0x1fff8472                ToggleLCDMemory
                0x1fff8473                DataLoggingInProcess1
                0x1fff8474                ht
                0x1fff8475                Protocol1
                0x1fff8476                Del1SDun
                0x1fff8477                ho
                0x1fff8478                ValKey
                0x1fff847a                tx1
                0x1fff847c                dx
                0x1fff847e                STX_TXD_BIT2
                0x1fff8480                ExpansionPtr
                0x1fff8484                Port2ModbusFirstAddr
                0x1fff8504                FHWT_Result
                0x1fff8508                DriverNum1
                0x1fff850c                fltbarprevval
                0x1fff8510                DigitFactor
                0x1fff8514                Xdiff2
                0x1fff8518                BGTaskCntr1
                0x1fff851c                CommandQueueEmpty
                0x1fff851d                Data_entry_on
                0x1fff851d                ModbusSlave3
                0x1fff851e                totbytes
                0x1fff851f                TagTable7
                0x1fff8520                add_hi
                0x1fff8522                Interframe_Delay2
                0x1fff8524                AttachFailedNodes1
                0x1fff8525                RXD_STX_ARRAY2
                0x1fff852a                UploadMode
                0x1fff852b                KeyPending
                0x1fff852c                Micro_RTC_DAY
                0x1fff8530                TaskIgnore3
                0x1fff8534                AlarmTag
                0x1fff85f4                PrevKey
                0x1fff85f8                ASCIIStringData2
                0x1fff864c                PrevFrameLength2
                0x1fff864d                PlcAttachInProcess1
                0x1fff8650                iEnd4
                0x1fff8654                arry
                0x1fff865a                disp_animat_space
                0x1fff865c                Rate_Timer_Count
                0x1fff8660                Value_Response_Bit2
                0x1fff8662                no_of_pressed_task
                0x1fff8664                RXD_No_Bytes1
                0x1fff8666                FloatArry
                0x1fff8674                Micro_RTC_OP_DAY
                0x1fff8678                Value_Slient_ETX_Time2
                0x1fff867a                SLV_REN
                0x1fff867c                alarmdata
                0x1fff867e                LowLimit
                0x1fff8680                BroadCastDataAdd1
                0x1fff8684                HistPtrOffset
                0x1fff8688                LocalTempPointer
                0x1fff868c                two_a_sqr
                0x1fff8690                TotalNoAlmInWindow
                0x1fff8691                ScreenChange
                0x1fff8692                ExpTimeOut
                0x1fff8693                Init_Mem_except_Keep
                0x1fff8694                TempRxAddr1
                0x1fff8698                Micro_RTC_ANS_DAY
                0x1fff869c                DelayAfterBreak2
                0x1fff869d                SerialFlashSem_Com2
                0x1fff869e                TXD_NoOfCRCBytes2
                0x1fff86a0                Value_Slient_STX_Time1
                0x1fff86a2                blanktxt
                0x1fff86a3                NodeIntr
                0x1fff86a4                UploadBuffer
                0x1fff8c80                Transmit_Timeout_Flag
                0x1fff8c81                TagType
                0x1fff8c82                PlcAttachDone2
                0x1fff8c84                f2ptr
                0x1fff8c88                HSPWM_STOP_RunBit
                0x1fff8c8c                pll_0_clk_khz
                0x1fff8c90                TxSem
                0x1fff8c91                HSINP_Config
                0x1fff8c94                TagNo
                0x1fff8c98                Comm2Buff
                0x1fff8d98                ModSlaveReset2
                0x1fff8d9c                RegAddr4
                0x1fff8da0                DataTypeFormat
                0x1fff8da1                NodesForPort1
                0x1fff8da2                p_on_loc
                0x1fff8da4                Node
                0x1fff8da6                Xav2
                0x1fff8da8                totallength
                0x1fff8daa                TextColor
                0x1fff8dac                PopScreenFound
                0x1fff8dad                StartingAddrPort1
                0x1fff8db8                KeyTopY
                0x1fff8dba                TXD_STX_ARRAY1
                0x1fff8dc0                SqrtPtr
                0x1fff8dc4                dterm
                0x1fff8df4                multiplier
                0x1fff8df6                BackPlaneCmd
                0x1fff8df7                SwitchPrev_1
                0x1fff8df8                GlobalBlockCntr1
                0x1fff8df9                Drv2Del1SDun
                0x1fff8dfa                MainloopScanTime
                0x1fff8dfc                RTCTASK_Status2
                0x1fff8dfd                IbmTimeOut2
                0x1fff8dfe                mi
                0x1fff8e00                PreviousScreen
                0x1fff8e02                PrizmPORT2
                0x1fff8e03                HoldModeMessageDisplayed
                0x1fff8e04                RecCntGlob2
                0x1fff8e08                FrameLength1
                0x1fff8e0c                text_ptr
                0x1fff8e10                PortTag
                0x1fff8e11                z_level
                0x1fff8e12                PasswordScr
                0x1fff8e13                HRR
                0x1fff8e14                start_addr
                0x1fff8e16                Port2PlcModel
                0x1fff8e36                FactApplEnter
                0x1fff8e37                IBMFlag1
                0x1fff8e38                ByteToBeSend1
                0x1fff8e3c                PrevBlockSizePort2
                0x1fff8e3c                ListOfBlocksPort3
                0x1fff8e40                f4ptr
                0x1fff8e44                passobjtx
                0x1fff8e46                HSC_Set2
                0x1fff8e47                SendControlStatusCmd2
                0x1fff8e48                HSC_Set1
                0x1fff8e49                Drv2Timeout
                0x1fff8e4a                task
                0x1fff8e4c                GlobalReleasedTaskBytes
                0x1fff8e4e                decimal_pt
                0x1fff8e50                ListOfBlocksPort6
                0x1fff8e54                LED_0
                0x1fff8e56                col
                0x1fff8e58                NoOfDigit
                0x1fff8e59                Halt_Command_Before_Download
                0x1fff8e5c                RecipeCount3
                0x1fff8e60                TimeOutFlag
                0x1fff8e61                SlowFlash
                0x1fff8e64                gtaskflag
                0x1fff8e68                MaxPLCBlocks_Write1
                0x1fff8e6a                NumericASCII_Dec
                0x1fff8e74                Model_Type
                0x1fff8e88                HSPWM_Channel1_NoOfPulses
                0x1fff8e8c                D_E_no_of_digit
                0x1fff8e8d                Severity
                0x1fff8e8e                EVENT_BASE_PTR
                0x1fff8e90                RecipeStr2
                0x1fff8ed6                TxStartAdd1
                0x1fff8ed8                CoilSize
                0x1fff8ed9                TagTableUpdated1
                0x1fff8edc                abSerialFlashBuff2
                0x1fff8ee6                SendModRespFromMainLoop3
                0x1fff8ee8                Port7BlockCount
                0x1fff8eea                mo
                0x1fff8eec                RXD_ON_bit2
                0x1fff8eee                SkipGlobalTask1
                0x1fff8ef0                Micro_RTC_HOUR
                0x1fff8ef4                CMD
                0x1fff8ef8                InterFrameDelay1
                0x1fff8efc                CursorLoc
                0x1fff8efe                NodeAddCount1
                0x1fff8eff                CurrNodeAddress1
                0x1fff8f00                STX_TXD_BIT1
                0x1fff8f02                RegLength2
                0x1fff8f04                Stored_BGTaskPtr_W1
                0x1fff8f08                PLCBlockSize1
                0x1fff8f0c                P_Screen_no
                0x1fff8f10                TXD_ETX_ARRAY2
                0x1fff8f15                LedState_OP4
                0x1fff8f18                MSG_USB
                0x1fff8f1c                BGTaskPtr_W1
                0x1fff8f20                counter
                0x1fff8f22                ExpConnected
                0x1fff8f23                ADFrame1
                0x1fff8f24                Port3Plc
                0x1fff8f2a                BroadCastEnable1
                0x1fff8f2c                key_loc
                0x1fff8f30                ReadWrite2
                0x1fff8f31                prev_pixel_byte
                0x1fff8f32                PrevKey3
                0x1fff8f34                TXD_ETX_F1
                0x1fff8f36                PLCTagError
                0x1fff8f37                Conversion_buf
                0x1fff8f3c                ModhiAddr2
                0x1fff8f3e                DEHideData
                0x1fff8f3f                ASCII_Keypad_Style
                0x1fff8f40                CoordREdraw
                0x1fff9140                no_of_released_task
                0x1fff9142                IBMDownload2
                0x1fff9144                TXD_Checksum_method1
                0x1fff9146                AddrRead4Byte
                0x1fff9148                pll_1_clk_khz
                0x1fff914c                ListOfBlocksPort8
                0x1fff9150                SendControlStatusCmd
                0x1fff9152                Global_no_of_released_task
                0x1fff9154                loc_x
                0x1fff9156                PlcAttachRequire2
                0x1fff9158                PWM_Count2
                0x1fff915c                Display_digit
                0x1fff915d                LedState_RUN
                0x1fff9160                CMDQ1_TagNamePointer
                0x1fff9164                RecTaskCommandSent1
                0x1fff9168                PID_OPR_C
                0x1fff916c                PopupScreen
                0x1fff9184                TextBgColor
                0x1fff9186                RxEnableBit2
                0x1fff9188                Needle_pivot_y
                0x1fff918a                D_e_buf
                0x1fff918e                BGTaskTillDelayExecuted
                0x1fff918f                BreakComplete2
                0x1fff9190                RecCntWhile2
                0x1fff9194                PrevNodeAddress2
                0x1fff9195                ScrsvrPassword
                0x1fff919b                histalarmchange
                0x1fff919c                on_txt_length
                0x1fff91a0                BGTaskCount2
                0x1fff91a4                tag_ptr
                0x1fff91a8                font_ptr
                0x1fff91ac                ScrZeroLoaded
                0x1fff91ad                ExpTimeOutCnt
                0x1fff91ae                USB_MONITOR_FLAG
                0x1fff91b0                patterncolor
                0x1fff91b2                Response2Completed
                0x1fff91b4                ExpGlobalBlockCntr
                0x1fff91b8                CurrBlockPort1
                0x1fff91ba                Port1PlcRegLen
                0x1fff91da                PresentKey
                0x1fff91dc                four_a_sqr
                0x1fff91e0                NoSend2
                0x1fff91e2                no_of_tags
                0x1fff91e4                PrevPlcState
                0x1fff9224                LedState_RED
                0x1fff9226                RXD_COMTD_BIT1
                0x1fff9228                GlobalBlockCntr3
                0x1fff922a                MaxPLCBlocks_Read2
                0x1fff922c                AlarmBit
                0x1fff982c                Port2ErrorStatus
                0x1fff984c                TagTable6
                0x1fff984d                LogPrint2
                0x1fff984e                SendCnt2
                0x1fff9850                Baud_Addr_local_buff
                0x1fff9854                Total_Data_Download_Frames
                0x1fff9858                PrevDelayTrans
                0x1fff985a                ModloAddr
                0x1fff985c                RBR_CHECK
                0x1fff9860                PrevXdb
                0x1fff9864                CommTimeOut4
                0x1fff9865                Switch_Dir
                0x1fff9866                RTC_Recipe_Delay_Port2
                0x1fff9868                YOff2
                0x1fff986c                Max_BGTaskPtr_G1
                0x1fff9870                ADDR_LOGIC_HI
                0x1fff9872                dy
                0x1fff9874                y
                0x1fff9876                Slient_STX_Time1
                0x1fff9878                PID2_ST_VAR
                0x1fff987a                RetCntOverRunError1_R
                0x1fff987b                chkser1intr
                0x1fff987c                ModelType2
                0x1fff987e                Yoffset2
                0x1fff9880                PID_OPR_A
                0x1fff9884                UpdateNodeStatusPort2
                0x1fff9886                RXD_STX_F2
                0x1fff9888                StringLength2
                0x1fff988c                Clear_Timer_Vars
                0x1fff988e                yend
                0x1fff9890                key
                0x1fff9892                RetentiveSize_Counter
                0x1fff9894                FailedNodeAddr1
                0x1fff9896                HSPWM_Prev_Duty_Cycle
                0x1fff989c                temp_ptr
                0x1fff98a0                var2
                0x1fff98a4                degNeedle
                0x1fff98a8                PrevRecFrameLength1
                0x1fff98a9                RetCntOverRunError2
                0x1fff98aa                Ident
                0x1fff98ab                CheckHoriOrVer
                0x1fff98ac                DummyComm1
                0x1fff98ad                AllowMaxPLCBlockSize1
                0x1fff98ae                AllowMaxPLCBlockSize2
                0x1fff98b0                var3
                0x1fff98b4                NewKey
                0x1fff98b8                yrad
                0x1fff98ba                Onesec
                0x1fff98bb                TagStatus3
                0x1fff98db                tmp_data
                0x1fff98dc                AssociatedScreenPtr
                0x1fff98e0                d
                0x1fff98e4                PrizmTagType1
                0x1fff98e8                RecipeBlockLen2
                0x1fff98ec                BaudRate1
                0x1fff98ed                Halt_Mode_Retain_Flag_BW
                0x1fff98ee                no_obj
                0x1fff98f0                CMDQ3
                0x1fff98f2                TXD_ETX_ARRAY1
                0x1fff98f7                ye
                0x1fff98f8                Interframe_Delay1
                0x1fff98fa                Application_Present
                0x1fff98fb                Show
                0x1fff98fc                DriverScanTime2
                0x1fff9900                Response_Bit1
                0x1fff9902                Serial_Com1Int
                0x1fff9904                FloatFactor
                0x1fff9908                Port3BlockCount
                0x1fff990a                xrad
                0x1fff990c                xend
                0x1fff9910                BCD_reg_data
                0x1fff9914                FramePartiallyReceived2
                0x1fff9915                ThreeHalfDel2
                0x1fff9918                no_of_rows
                0x1fff991c                PassBuff
                0x1fff9920                mode_screen_X
                0x1fff9924                min
                0x1fff9926                PopupTopx
                0x1fff9928                IFDelayPort1
                0x1fff992c                maskdata
                0x1fff9930                Sbits_Addr_local_buff2
                0x1fff9934                Local_temp_hi
                0x1fff9938                TimeOut2
                0x1fff993c                g_task
                0x1fff9940                obj_bytes_0
                0x1fff9944                Ypv2
                0x1fff9948                ListOfBlocksPort7
                0x1fff994c                Port1IntrCMDQ
                0x1fff994d                PlcAttachRequire1
                0x1fff994e                fgcolor
                0x1fff9950                Checksum_Error_Bit1
                0x1fff9952                set1
                0x1fff9953                KeyFound
                0x1fff9954                BGTaskCntr2
                0x1fff9958                readLSR2
                0x1fff995c                top_y
                0x1fff995e                line_prev_x2
                0x1fff9a5c                Micro_RTC_ANS_HOUR
                0x1fff9a60                Response_Time1
                0x1fff9a62                MaxPLCBlocks_Read1
                0x1fff9a64                Prev_PSTR_Bit
                0x1fff9a65                UpdateScr
                0x1fff9a66                no_obj1
                0x1fff9a68                TCH_DETECT
                0x1fff9a6c                Micro_RTC_ANS_YEAR
                0x1fff9a70                textmask
                0x1fff9a72                Temp_Value_RXD_NoOfETXBytes1
                0x1fff9a74                MaxPLCBlocks_Write2
                0x1fff9a78                NewTime
                0x1fff9a7c                Value_Retry_Count1
                0x1fff9a7e                Bcc
                0x1fff9a80                CursorX
                0x1fff9a82                yy
                0x1fff9a84                EndOfFrame2
                0x1fff9a88                Max_RecCntWhile1
                0x1fff9a8c                Port1PlcModel
                0x1fff9aac                SwitchLCDMemory
                0x1fff9ab0                Backlit_val_FP4020
                0x1fff9ab4                ExpCurrNodeAddress
                0x1fff9ab5                statefound
                0x1fff9ab6                BGTaskExec2
                0x1fff9ab7                RXD_ETX_ARRAY2
                0x1fff9abc                PSTR_Bit
                0x1fff9abd                Port1ModbusFirstRegType
                0x1fff9ade                Port1Count
                0x1fff9ae0                WritingCMDQ4
                0x1fff9ae1                Bit_no
                0x1fff9ae2                sec
                0x1fff9ae3                BGStrLen1
                0x1fff9ae4                AddrRead4BytePort
                0x1fff9ae8                Crc4Hi
                0x1fff9ae9                NumericASCII_no_of_digit
                0x1fff9aec                IFDelayPort2
                0x1fff9af0                RecipeCount1
                0x1fff9af4                PLCTagPresent
                0x1fff9af6                bottomright_x
                0x1fff9af8                b_sqr
                0x1fff9afc                TxStartAdd2
                0x1fff9b00                MaxValuefloat
                0x1fff9b04                ReadDone1
                0x1fff9b05                TrendObjCnt
                0x1fff9b06                DEscrno
                0x1fff9b08                DelayCountValue
                0x1fff9b0a                Delay5_sec_count
                0x1fff9b0c                TsRaw
                0x1fff9b20                Del0SDun
                0x1fff9b21                OverRunError2
                0x1fff9b24                histalrmdispptr
                0x1fff9b28                Init_Keep_Mem
                0x1fff9b2a                Firm_Rev_Appl
                0x1fff9b3e                USB_TIMEOUT_FLAG
                0x1fff9b3f                NodesForPort2
                0x1fff9b40                Node_addr
                0x1fff9b42                SwapStr
                0x1fff9b88                FloatFlag
                0x1fff9b8a                prev_x
                0x1fff9b8c                ASA_Byte_RXD2
                0x1fff9b8e                DATA_MONITOR_FLAG
                0x1fff9b8f                ErrorInfo_Data
                0x1fff9ba0                searchpointer1
                0x1fff9ba4                NodeIsFailed2
                0x1fff9ba8                CurrWaitTillFlag
                0x1fff9bac                BeforeWaitDelayFlag
                0x1fff9bae                Port8GlobalBlockCount
                0x1fff9bb0                BGTaskCount1
                0x1fff9bb4                DrawMainScrObj
                0x1fff9bb8                NextKey
                0x1fff9bbc                HSPWM_TempDecTime
                0x1fff9bc4                TimeOutCount
                0x1fff9bc6                ScreenPtr
                0x1fff9bc8                RxNoBytes1
                0x1fff9bcc                D_E_screen_obj_ptr
                0x1fff9bd0                BGRegLength2
                0x1fff9bd1                SendSerialMonRespFromMainLoop2
                0x1fff9bd2                Usb_Total_Frame
                0x1fff9bd3                TempCountPort1
                0x1fff9bd4                CopyTagSTR_InGlobal
                0x1fff9bd5                DecimalEntry
                0x1fff9bd6                x1
                0x1fff9bd8                reg_lo_lo
                0x1fff9bdc                StringLength1
                0x1fff9be0                Appln_ptr
                0x1fff9be4                Port1Var5
                0x1fff9be8                FirstDataByte
                0x1fff9be9                CRCreg
                0x1fff9bec                mcg_clk_khz
                0x1fff9bf0                RecCntGlob1
                0x1fff9bf4                D_E_KeypadType
                0x1fff9bf8                Password_Scr_Ptr
                0x1fff9bfc                FONT_COMP
                0x1fff9bfd                GetResponse1
                0x1fff9bfe                ByteofTag
                0x1fff9bff                NumOfBlocksPort1
                0x1fff9c00                Length1Received
                0x1fff9c02                YVAL2
                0x1fff9c04                NotAccept2
                0x1fff9c06                DXVtg2
                0x1fff9c08                Port6BlockCount
                0x1fff9c0c                RecipeRTC1
                0x1fff9e0c                Halt_Mode_Retain_Flag_Timer
                0x1fff9e10                PLCBlockSize2
                0x1fff9e14                NoSend1
                0x1fff9e15                SendFirstByte2
                0x1fff9e18                Port1ModbusFirstAddr
                0x1fff9e98                ModbusCoil2
                0x1fff9e99                offset
                0x1fff9e9a                RECTaskExec2
                0x1fff9e9b                SwitchNxt
                0x1fff9e9c                Plc3Present
                0x1fff9e9d                Port2Plc
                0x1fff9ea3                pix_bit
                0x1fff9ea4                D_E_Bit_No
                0x1fff9ea5                LogPrint1
                0x1fff9ea6                BitOperationPort1
                0x1fff9ea8                Port4BlockCount
                0x1fff9eac                Micro_RTC_OP_YEAR
                0x1fff9eb0                MW_Reg_Offset
                0x1fff9eb4                TrendScroll
                0x1fff9eb5                LedState_COM2
                0x1fff9eb6                Ycv2
                0x1fff9eb8                add_lo
                0x1fff9eb9                Port2ModbusFirstRegType
                0x1fff9eda                Delay_FHWT
                0x1fff9edc                NoOfReg4
                0x1fff9ee0                hr
                0x1fff9ee2                Slient_ETX_Time1
                0x1fff9ee4                TXD_STX_F1
                0x1fff9ee6                RXD_NoOfSTXBytes2
                0x1fff9ee8                ANA_DLY_FLAG
                0x1fff9eec                passobjty
                0x1fff9eee                TypeOfTag
                0x1fff9ef0                Max_RecCntWhile3
                0x1fff9ef4                TagTable1
                0x1fffa0f4                passverify
                0x1fffa0f8                Delay_10ms
                0x1fffa0fc                x_num
                0x1fffa0fe                RECIPE_TYPE1
                0x1fffa0ff                BGNodeAddr2
                0x1fffa100                AlarmType
                0x1fffa104                RBR_CHECK_2
                0x1fffa108                Max_BGTaskPtr_W2
                0x1fffa10c                DontShiftCmdQ1
                0x1fffa10d                LocalKeyFound
                0x1fffa10e                Retry_Count2
                0x1fffa110                Addr2Byte
                0x1fffa114                Datechange
                0x1fffa115                TempCount
                0x1fffa116                StopBit1
                0x1fffa118                RecipeLen2
                0x1fffa11c                RetCntOverRunError1
                0x1fffa11d                Port3ErrorStatus
                0x1fffa11e                ModloAddr2
                0x1fffa120                ByteFormatPort2
                0x1fffa122                topleft_y
                0x1fffa124                RtcData
                0x1fffa126                RXD_Checksum_method1
                0x1fffa128                Max_BGTaskPtr_G2
                0x1fffa12c                Value_Response_Bit1
                0x1fffa12e                CMDQ2
                0x1fffa160                PopupBotx
                0x1fffa164                BroadCastEnableBit1
                0x1fffa168                TxNoBytes1
                0x1fffa16a                RecCmdExec
                0x1fffa16b                MoveCursor
                0x1fffa16c                wl
                0x1fffa2f8                Key_Buffer_Empty
                0x1fffa2f9                DigitBuff
                0x1fffa2fb                alarmno
                0x1fffa2fc                NewFrame
                0x1fffa2fd                Halt_Mode_Retain_Flag_Counter
                0x1fffa300                TagNamePointer1
                0x1fffa304                Sys_PLC2
                0x1fffa305                LedState_ERROR
                0x1fffa306                erase
                0x1fffa308                EXEC_PLC_ASCII1
                0x1fffa309                Send_By
                0x1fffa30a                BroadCastModbusTag1
                0x1fffa30b                OverRunError1
                0x1fffa30c                DEByteSize
                0x1fffa30d                PowerOnGlobal1
                0x1fffa30e                RXD_NoOfETXBytes1
                0x1fffa310                Del20mSDun
                0x1fffa311                passcount
                0x1fffa312                DisplayBkColor
                0x1fffa313                FontMultiY
                0x1fffa314                sign_data
                0x1fffa318                NoOfBlocks
                0x1fffa31a                Del10mSDun
                0x1fffa31c                PLCModel
                0x1fffa320                PID2_OPR_C
                0x1fffa324                DEobjno
                0x1fffa328                HistTextPtr
                0x1fffa32c                PressDun
                0x1fffa32d                HistAlarmPresent
                0x1fffa32e                tx2
                0x1fffa330                ScreenSaver
                0x1fffa334                Baud_Addr_local_buff2
                0x1fffa338                CursorPos
                0x1fffa339                AttachFailedNodesExp
                0x1fffa33c                Micro_RTC_SECOND
                0x1fffa340                DwordFormatPort2
                0x1fffa341                WhilePressedTask
                0x1fffa344                Total_send_usb
                0x1fffa348                WritePtrAccess
                0x1fffa34a                BGCMDQ1_Rec
                0x1fffa414                PowerDwnAppl_Info
                0x1fffa418                BGTaskPtr_G2
                0x1fffa41c                PrintBuff
                0x1fffa4c4                Xcv2
                0x1fffa4c6                key_no
                0x1fffa4c8                MELSEC_Port2_Info
                0x1fffa508                _dwUsbUploadAppSize
                0x1fffa50c                SpecialEagleDriver2
                0x1fffa50d                RespNok
                0x1fffa50e                Plc1Present
                0x1fffa50f                groupno
                0x1fffa510                Halt_Mode_Retain_Flag_Data
                0x1fffa511                CommTimeOut2
                0x1fffa512                Port6GlobalBlockCount
                0x1fffa514                WriteError1
                0x1fffa515                WriteCount2
                0x1fffa516                Needle_length
                0x1fffa518                x1_sav
                0x1fffa51a                key_bytes
                0x1fffa51c                Value_Slient_ETX_Time1
                0x1fffa51e                Ladder_Present
                0x1fffa51f                SendModRespFromMainLoop2
                0x1fffa520                a
                0x1fffa521                DontIncrementMessageID1
                0x1fffa524                PLCOnPort1
                0x1fffa528                NodeAttached2
                0x1fffa52c                LedState_OP5
                0x1fffa52e                i1
                0x1fffa530                SplPLC
                0x1fffa534                TmoPort1
                0x1fffa538                Screen_Change
                0x1fffa539                RTCLoop
                0x1fffa53a                DwordIntFormatPort1
                0x1fffa53c                CurrTagPtr
                0x1fffa540                no_of_languages
                0x1fffa542                TXD_NoOfCRCBytes1
                0x1fffa544                HistAlarm_Window
                0x1fffa546                TXD_CRCSelection2
                0x1fffa548                line_prev_y1
                0x1fffa646                ValidDataArr
                0x1fffa64c                TagTableUpdated2
                0x1fffa64d                PrizmTagType2
                0x1fffa64e                passfgcolor
                0x1fffa650                PLCCode
                0x1fffa652                DataEntryWidth
                0x1fffa654                ROW_UNIT
                0x1fffa655                PrizmPORT
                0x1fffa656                BGTASK_Status1
                0x1fffa658                no_of_press_task
                0x1fffa65a                PLC3Tag
                0x1fffa65b                StatusByte2
                0x1fffa65c                PrintingData2
                0x1fffa65d                UART_REC_DATA
                0x1fffa660                wIndex4
                0x1fffa664                Scrsvruser_Name
                0x1fffa673                ScreenChangeFlag1
                0x1fffa674                TagStatus2
                0x1fffa694                RxOutputBit2
                0x1fffa696                Plc1Dat1Hi
                0x1fffa698                Slient_STX_Time2
                0x1fffa69a                No_of_bytes
                0x1fffa69c                Micro_RTC_OP_SECOND
                0x1fffa6a0                NodeIntrPort1CMDQ
                0x1fffa6a4                PLCOnPort3
                0x1fffa6a8                PrizmTagAddress
                0x1fffa6ac                BlockSizePort1
                0x1fffa6ad                ind_addr_tag_3
                0x1fffa6b0                Micro_RTC_MONTH
                0x1fffa6b4                TagError
                0x1fffa6b5                IbmMode1
                0x1fffa6b6                RxEnabled2
                0x1fffa6b8                b_task
                0x1fffa6ba                Delay_w_task
                0x1fffa6bc                RetryCount1
                0x1fffa6be                LadderScanTime
                0x1fffa6c0                PrevRateVal
                0x1fffa6d0                ASCIIStringData1
                0x1fffa724                PrevKey0
                0x1fffa728                RecipeCntr1
                0x1fffa72c                MinValuefloat
                0x1fffa730                FrameLength2
                0x1fffa734                _dwUsbTxCounter
                0x1fffa738                RXD_NoOfCRCBytes1
                0x1fffa73a                Response_Time2
                0x1fffa73c                temp_lo
                0x1fffa740                DataLogMemoryErasing
                0x1fffa744                BroadCastModbusAdd2
                0x1fffa748                PlcDat2Lo
                0x1fffa749                Scale
                0x1fffa74a                DelayCount
                0x1fffa74c                last_screen_no
                0x1fffa74e                Ybv2
                0x1fffa750                StartDummComm2
                0x1fffa751                DontSave_ConfigReg
                0x1fffa752                XOff2
                0x1fffa754                ListOfBlocksPort5
                0x1fffa758                m
                0x1fffa75a                RegLengthInCMDQ1
                0x1fffa75b                animation
                0x1fffa75c                PlcAttachInProcess2
                0x1fffa75d                TxSem_Com2
                0x1fffa75e                TempCount1
                0x1fffa75f                ExpTagTable
                0x1fffa760                Max_RecCntGlob3
                0x1fffa764                Sys_Print2
                0x1fffa765                LED_2
                0x1fffa766                TXDClearFlag2
                0x1fffa768                HSPWM_TotalTime
                0x1fffa770                StartAngle
                0x1fffa774                ScreenPtrPort1
                0x1fffa776                TempRxAddr2
                0x1fffa778                TempRecipe
                0x1fffa78c                DelayAfterBreak1
                0x1fffa78d                AttachFailedNodes2
                0x1fffa78e                PlcAttachDone1
                0x1fffa78f                StateChange
                0x1fffa790                Drv1Del1SDun
                0x1fffa794                RecCntWhile3
                0x1fffa798                mode_screen_Y
                0x1fffa79c                Value_Interframe_Delay2
                0x1fffa79e                Port1Intr
                0x1fffa7a0                Stored_BGTaskPtr_W3
                0x1fffa7a4                EXP_ptr
                0x1fffa7a8                No_of_dataentries
                0x1fffa7ac                Wait_Till_Skip
                0x1fffa7b0                CurrTagPtrPort1
                0x1fffa7b4                Slient_ETX_Time2
                0x1fffa7b6                CurrBlockInPort1
                0x1fffa7b8                CurrNodeAddress2
                0x1fffa7b9                PowerOnAttach2
                0x1fffa7ba                FONT_BY
                0x1fffa7ba                ExpNodeAttached
                0x1fffa7bc                Dbits_Addr_local_buff
                0x1fffa7c0                TXD_STX_F2
                0x1fffa7c2                Del100mS
                0x1fffa7c4                EndAngle
                0x1fffa7c8                PrintStatus
                0x1fffa7d2                D_E_DataType
                0x1fffa7d4                Micro_RTC_MINUTE
                0x1fffa7d8                CommandReq
                0x1fffa7d9                CMDQAttachDone2
                0x1fffa7dc                DownloadCount3
                0x1fffa7e0                reg_lo_hi
                0x1fffa7e1                Comm1Buff
                0x1fffa8e2                SendCntr1
                0x1fffa8e4                Value_RXD_After_break2
                0x1fffa8e6                Block1UpdatingStarted
                0x1fffa8e8                BroadCastPtr
                0x1fffa8ec                cnt1
                0x1fffa8f0                ExpProtocol
                0x1fffa8f1                LedRow
                0x1fffa8f2                pa
                0x1fffa8f4                NewScreen
                0x1fffa8f6                CursorY
                0x1fffa8f8                i_crc4
                0x1fffa8fc                XW_YW_MW_ParameterPtr
                0x1fffa900                IBMDownload1
                0x1fffa902                StoreLastScreen
                0x1fffa904                CharObjCnt
                0x1fffa908                PID2_OPR_A
                0x1fffa90c                Temp_Value_RXD_NoOfETXBytes2
                0x1fffa90e                AlarmScanTime
                0x1fffa910                NewData
                0x1fffa914                SearchPointer
                0x1fffa918                BroadCastEnableBit2
                0x1fffa91c                font_multi
                0x1fffa920                PWM_Count1
                0x1fffa924                Del500mS
                0x1fffa925                First_loop
                0x1fffa926                PLC_MODE
                0x1fffa927                Int_Cursor
                0x1fffa928                ModelType1
                0x1fffa929                TagTable8
                0x1fffa92a                FrameNotCompleted1
                0x1fffa92b                FWD_REV
                0x1fffa92d                ByteSize
                0x1fffa930                flt1
                0x1fffa934                tempscreen
                0x1fffa936                Applupload_Buff
                0x1fffa93b                ModbusSlave1
                0x1fffa93c                DigitBuff1
                0x1fffa93e                BreakComplete1
                0x1fffa940                Restore_screen_no
                0x1fffa942                ThreeHalfDel1
                0x1fffa943                SendModRespFromMainLoop4
                0x1fffa944                TXD_COMTD_BIT2
                0x1fffa946                multistateredraw
                0x1fffa947                PrizmSizeCode
                0x1fffa948                ADDR_LOGIC_LO
                0x1fffa94c                Micro_RTC_ANS_MONTH
                0x1fffa950                ExpTagTableUpdated
                0x1fffa954                InterFrameDelay2
                0x1fffa958                height
                0x1fffa95a                ValidCheckOk
                0x1fffa95c                Appln_posn
                0x1fffa960                RxOutputBit1
                0x1fffa962                TimeFlag
                0x1fffa963                ScrollRight
                0x1fffa964                Prefix2
                0x1fffa966                RXD_CRCSelection2
                0x1fffa968                ind_addr_tag_6
                0x1fffa969                NodeAttached1
                0x1fffa96d                PLC1Tag
                0x1fffa96e                TCHdata
                0x1fffa970                DEobjtype
                0x1fffa972                Plc1Dat2Hi
                0x1fffa973                LedState_OP1
                0x1fffa974                Prevday
                0x1fffa975                RTC_OFFSET2
                0x1fffa976                F1_Touched
                0x1fffa978                BGTaskPtr_W2
                0x1fffa97c                PlcMode2
                0x1fffa97d                SignData
                0x1fffa97e                ObjNoRedraw
                0x1fffa980                alrmdispptr
                0x1fffa984                width
                0x1fffa986                ReceiveBuffLength1
                0x1fffa988                SendCnt1
                0x1fffa989                DummyScan2
                0x1fffa98c                MSG
                0x1fffaa18                RTCTASK_Status1
                0x1fffaa19                Alarm_Window
                0x1fffaa1a                D_E_AnimationBytes
                0x1fffaa1c                row
                0x1fffaa1e                application_buffer_lst
                0x1fffaa32                BlockSize
                0x1fffaa34                w_task
                0x1fffaa36                Recieve_Check
                0x1fffaa38                iStart4
                0x1fffaa3c                TXD_ETX_F2
                0x1fffaa3e                TotalStringLength
                0x1fffaa3f                GeFlag1
                0x1fffaa40                ModbusMultipleWrite1
                0x1fffaa44                Value_Response_Time1
                0x1fffaa46                EndOfFrame1
                0x1fffaa48                DelayTaskLoc
                0x1fffaa4c                PrevState
                0x1fffaacc                RTC_Recipe_Delay_Port3
                0x1fffaacd                WriteCMDQAttachDone1
                0x1fffaace                Plc2Comm
                0x1fffaad0                LocalPressedTaskBytes
                0x1fffaad2                X
                0x1fffaad4                PopupBoty
                0x1fffaad8                AddrReadByte1
                0x1fffaadc                DataFactor
                0x1fffaadd                Temp_HAread
                0x1fffaae2                TXD_NoOfSTXBytes2
                0x1fffaae4                LastMainScan
                0x1fffaae8                BlockSize1
                0x1fffaaec                a_sqr
                0x1fffaaf0                TagErrorFlag2
                0x1fffaaf1                Bcc1
                0x1fffaaf2                a_task
                0x1fffaaf4                PlcDat1Hi
                0x1fffaaf8                DriverScanTime1
                0x1fffaafc                counter2
                0x1fffaafe                Carry
                0x1fffaaff                ind_addr_tag_1
                0x1fffab00                Prevhr
                0x1fffab01                RegLength
                0x1fffab04                screen_obj_ptr
 COMMON         0x1fffab08       0x10 ASCIIComm.o
                0x1fffab08                SpShPtr1
                0x1fffab0c                PrevTransmitEnableBit1
                0x1fffab0d                HiLow1
                0x1fffab10                TempPtr1
                0x1fffab14                HiLow2
                0x1fffab15                TransmitEnableBit2
                0x1fffab16                TransmitEnableBit1
                0x1fffab17                PrevTransmitEnableBit2
 COMMON         0x1fffab18       0x20 Product_Info.o
                0x1fffab18                CAL_BUFF
                0x1fffab1c                AnaModel
                0x1fffab20                AnaEEPAddr
                0x1fffab24                ModelHIO
                0x1fffab28                WriteOffset
                0x1fffab2c                ModelName
                0x1fffab30                WriteCount
                0x1fffab34                Mem
 *(.bss)
 .bss           0x1fffab38        0x0 MplcISR.o
 .bss           0x1fffab38        0x0 one.o
 .bss           0x1fffab38        0x4 two.o
 *fill*         0x1fffab3c        0x4 00
 .bss           0x1fffab40      0x110 three.o
                0x1fffab40                HSC_Inverted_Logic1
                0x1fffab41                HSC_Inverted_Logic2
                0x1fffab42                CH1_CONFIG
                0x1fffab43                CH2_CONFIG
                0x1fffab44                Enable1
                0x1fffab45                Enable2
                0x1fffab48                HSC_count0
                0x1fffab4c                HSC_count1
                0x1fffab50                HSC_count2
                0x1fffab54                HSC_count3
                0x1fffab58                In_Fact_Appln
                0x1fffab59                cntrst_update
                0x1fffab5a                gContrast
                0x1fffab5b                brt_update
                0x1fffab5c                Scrn_svr_status_update
                0x1fffab5d                Scrn_svr_time_update
                0x1fffab5e                Scrn_svr_update
                0x1fffab5f                Update_serial1
                0x1fffab60                Sbits_update1
                0x1fffab61                Dbits_update1
                0x1fffab62                Baud_update1
                0x1fffab63                Parity_update1
                0x1fffab64                Update_serial2
                0x1fffab65                Sbits_update2
                0x1fffab66                Dbits_update2
                0x1fffab67                Baud_update2
                0x1fffab68                Parity_update2
                0x1fffab69                Beeper_Status
                0x1fffab6e                Beeper_update
                0x1fffab6f                Serial_Flash_Nesting
                0x1fffab70                PID_P
                0x1fffab72                PID_EXECUTE
                0x1fffab74                PID_M
                0x1fffab76                PID_E1
                0x1fffab78                PID_P1
                0x1fffab7a                PID_P2
                0x1fffab7c                PID_Ir
                0x1fffab7e                PID_S
                0x1fffab80                PID_KP
                0x1fffab82                PID_KIH
                0x1fffab84                PID_KIL
                0x1fffab86                PID_KDH
                0x1fffab88                PID_KDL
                0x1fffab8a                PID_G
                0x1fffab8c                PID_L
                0x1fffab8e                PID_First_Scan
                0x1fffab90                PID2_S
                0x1fffab92                PID2_KP
                0x1fffab94                PID2_RT
                0x1fffab96                PID2_KD
                0x1fffab98                PID2_DB
                0x1fffab9a                PID2_ACT
                0x1fffab9c                PID2_M
                0x1fffab9e                PID2_E1
                0x1fffaba0                PID2_E2
                0x1fffaba2                PID2_P
                0x1fffaba4                PID2_EXECUTE
                0x1fffaba6                PID2_LastM
                0x1fffaba8                PID2_E
                0x1fffabac                PID_Result
                0x1fffabb0                PID2_ST
                0x1fffabb2                PID2_IC
                0x1fffabb4                PID2_First_Scan
                0x1fffabb8                Data_Download_complt
                0x1fffabbc                PacketSend
                0x1fffabc0                PacketSize
                0x1fffabc4                Application_Complete_Flag
                0x1fffabcc                UploadPort
                0x1fffabcd                UploadTimeOut
                0x1fffabd0                Serial_FlashChk
                0x1fffabd1                Serial_FlashChk_Com2
                0x1fffabd2                IBM_Download_Byte_1
                0x1fffabd3                IBM_Download_Byte_2
                0x1fffabd4                histack
                0x1fffabd6                HistColumn_Index
                0x1fffabd8                checkover
                0x1fffabda                debug_count
                0x1fffabe0                ClearMemOk
                0x1fffabe1                Touch_Cal
                0x1fffabe2                PowerDwnsave_Error
                0x1fffabe3                Reset_Type
                0x1fffabe4                TchIntrEnable
                0x1fffabe5                IOUpdateinProgress
                0x1fffabe6                ProductCode
                0x1fffabe8                My_Int_Min
                0x1fffabf0                HistTrend4ByteFlag
                0x1fffabf4                HistTrend4Byte
                0x1fffac00                Column_Index
                0x1fffac06                LP_GroupNumber
                0x1fffac07                LP_SerialPort
                0x1fffac08                LP_Called
                0x1fffac09                EventLoggerDefined
                0x1fffac0a                RTCPowerOn
                0x1fffac0b                UploadAckRec
                0x1fffac0c                ByteRec
                0x1fffac10                T10TC
                0x1fffac18                T20msTC
                0x1fffac1c                Com1Delay
                0x1fffac1d                Com2Delay
                0x1fffac1e                UpdateTableCnt1
                0x1fffac1f                UpdateTableCnt2
                0x1fffac20                FirstIBMtimeOut1
                0x1fffac21                FirstIBMtimeOut2
                0x1fffac22                IOmismatch
                0x1fffac24                dwSetAddress
                0x1fffac28                bSetConfig
                0x1fffac29                _bUsbActivityStatus
                0x1fffac2a                _bUsbEp1TxNeeded
                0x1fffac2b                _bUsbUploadInProgress
                0x1fffac2c                _bUsbTxState
                0x1fffac2d                bDoLoop
                0x1fffac2e                _bUsbRTCstate
                0x1fffac2f                FP30_Upload_Main
                0x1fffac30                bApplUploadStart
                0x1fffac31                bLadderUploadStart
                0x1fffac32                bFhwtResultUpload
                0x1fffac33                bAlarmUpload
                0x1fffac34                bUsbDownloadInProgress
                0x1fffac38                ErrorMode
                0x1fffac3c                SystemParameterPtr
                0x1fffac40                BatVoltage
                0x1fffac45                CalibrationFlag
                0x1fffac46                One_Read
                0x1fffac48                Touch_Rise
                0x1fffac4c                Touch_Fall
 .bss           0x1fffac50        0x0 vectors.o
 .bss           0x1fffac50        0x0 77701a.o
 .bss           0x1fffac50        0x0 77702a.o
 .bss           0x1fffac50        0x0 ASCIIComm.o
 .bss           0x1fffac50        0x0 Product_Info.o
 .bss           0x1fffac50        0x0 D:\ToolChain3\arm-none-eabi\lib\thumb2\libm.a(lib_a-s_cos.o)
 .bss           0x1fffac50        0x0 D:\ToolChain3\arm-none-eabi\lib\thumb2\libm.a(lib_a-s_floor.o)
 .bss           0x1fffac50        0x0 D:\ToolChain3\arm-none-eabi\lib\thumb2\libm.a(lib_a-s_modf.o)
 .bss           0x1fffac50        0x0 D:\ToolChain3\arm-none-eabi\lib\thumb2\libm.a(lib_a-s_sin.o)
 .bss           0x1fffac50        0x0 D:\ToolChain3\arm-none-eabi\lib\thumb2\libm.a(lib_a-w_sqrt.o)
 .bss           0x1fffac50        0x0 D:\ToolChain3\arm-none-eabi\lib\thumb2\libm.a(lib_a-wf_exp.o)
 .bss           0x1fffac50        0x0 D:\ToolChain3\arm-none-eabi\lib\thumb2\libm.a(lib_a-e_rem_pio2.o)
 .bss           0x1fffac50        0x0 D:\ToolChain3\arm-none-eabi\lib\thumb2\libm.a(lib_a-e_sqrt.o)
 .bss           0x1fffac50        0x0 D:\ToolChain3\arm-none-eabi\lib\thumb2\libm.a(lib_a-ef_exp.o)
 .bss           0x1fffac50        0x0 D:\ToolChain3\arm-none-eabi\lib\thumb2\libm.a(lib_a-k_cos.o)
 .bss           0x1fffac50        0x0 D:\ToolChain3\arm-none-eabi\lib\thumb2\libm.a(lib_a-k_rem_pio2.o)
 .bss           0x1fffac50        0x0 D:\ToolChain3\arm-none-eabi\lib\thumb2\libm.a(lib_a-k_sin.o)
 .bss           0x1fffac50        0x0 D:\ToolChain3\arm-none-eabi\lib\thumb2\libm.a(lib_a-s_fabs.o)
 .bss           0x1fffac50        0x0 D:\ToolChain3\arm-none-eabi\lib\thumb2\libm.a(lib_a-s_fpclassify.o)
 .bss           0x1fffac50        0x0 D:\ToolChain3\arm-none-eabi\lib\thumb2\libm.a(lib_a-s_lib_ver.o)
 .bss           0x1fffac50        0x0 D:\ToolChain3\arm-none-eabi\lib\thumb2\libm.a(lib_a-s_matherr.o)
 .bss           0x1fffac50        0x0 D:\ToolChain3\arm-none-eabi\lib\thumb2\libm.a(lib_a-s_scalbn.o)
 .bss           0x1fffac50        0x0 D:\ToolChain3\arm-none-eabi\lib\thumb2\libm.a(lib_a-sf_finite.o)
 .bss           0x1fffac50        0x0 D:\ToolChain3\arm-none-eabi\lib\thumb2\libm.a(lib_a-s_copysign.o)
 .bss           0x1fffac50        0x0 D:\ToolChain3\arm-none-eabi\lib\thumb2\libc.a(lib_a-errno.o)
 .bss           0x1fffac50        0x0 D:\ToolChain3\arm-none-eabi\lib\thumb2\libc.a(lib_a-impure.o)
 .bss           0x1fffac50        0x0 D:\ToolChain3\arm-none-eabi\lib\thumb2\libc.a(lib_a-memset.o)
 .bss           0x1fffac50        0x0 D:\ToolChain3\lib\gcc\arm-none-eabi\4.5.2\libgcc.a(_divsi3.o)
 .bss           0x1fffac50        0x0 D:\ToolChain3\lib\gcc\arm-none-eabi\4.5.2\libgcc.a(_dvmd_tls.o)
 .bss           0x1fffac50        0x0 D:\ToolChain3\lib\gcc\arm-none-eabi\4.5.2\libgcc.a(_arm_addsubdf3.o)
 .bss           0x1fffac50        0x0 D:\ToolChain3\lib\gcc\arm-none-eabi\4.5.2\libgcc.a(_arm_muldivdf3.o)
 .bss           0x1fffac50        0x0 D:\ToolChain3\lib\gcc\arm-none-eabi\4.5.2\libgcc.a(_arm_cmpdf2.o)
 .bss           0x1fffac50        0x0 D:\ToolChain3\lib\gcc\arm-none-eabi\4.5.2\libgcc.a(_arm_fixdfsi.o)
 .bss           0x1fffac50        0x0 D:\ToolChain3\lib\gcc\arm-none-eabi\4.5.2\libgcc.a(_arm_fixunsdfsi.o)
 .bss           0x1fffac50        0x0 D:\ToolChain3\lib\gcc\arm-none-eabi\4.5.2\libgcc.a(_arm_truncdfsf2.o)
 .bss           0x1fffac50        0x0 D:\ToolChain3\lib\gcc\arm-none-eabi\4.5.2\libgcc.a(_arm_addsubsf3.o)
 .bss           0x1fffac50        0x0 D:\ToolChain3\lib\gcc\arm-none-eabi\4.5.2\libgcc.a(_arm_muldivsf3.o)
 .bss           0x1fffac50        0x0 D:\ToolChain3\lib\gcc\arm-none-eabi\4.5.2\libgcc.a(_arm_cmpsf2.o)
 .bss           0x1fffac50        0x0 D:\ToolChain3\lib\gcc\arm-none-eabi\4.5.2\libgcc.a(_arm_fixsfsi.o)
                0x1fffac50                _bend = .
LOAD 77701a.o
LOAD 77702a.o
LOAD ASCIIComm.o
LOAD Product_Info.o
LOAD D:\ToolChain3\arm-none-eabi\lib\thumb2\libm.a
LOAD D:\ToolChain3\arm-none-eabi\lib\thumb2\libc.a
LOAD D:\ToolChain3\lib\gcc\arm-none-eabi\4.5.2\libgcc.a
OUTPUT(obj545.o elf32-littlearm)

.ARM.attributes
                0x00000000       0x39
 .ARM.attributes
                0x00000000       0x37 MplcISR.o
 .ARM.attributes
                0x00000037       0x37 one.o
 .ARM.attributes
                0x0000006e       0x37 two.o
 .ARM.attributes
                0x000000a5       0x37 three.o
 .ARM.attributes
                0x000000dc       0x37 vectors.o
 .ARM.attributes
                0x00000113       0x31 77701a.o
 .ARM.attributes
                0x00000144       0x31 77702a.o
 .ARM.attributes
                0x00000175       0x37 ASCIIComm.o
 .ARM.attributes
                0x000001ac       0x37 Product_Info.o
 .ARM.attributes
                0x000001e3       0x29 D:\ToolChain3\arm-none-eabi\lib\thumb2\libm.a(lib_a-s_cos.o)
 .ARM.attributes
                0x0000020c       0x29 D:\ToolChain3\arm-none-eabi\lib\thumb2\libm.a(lib_a-s_floor.o)
 .ARM.attributes
                0x00000235       0x29 D:\ToolChain3\arm-none-eabi\lib\thumb2\libm.a(lib_a-s_modf.o)
 .ARM.attributes
                0x0000025e       0x29 D:\ToolChain3\arm-none-eabi\lib\thumb2\libm.a(lib_a-s_sin.o)
 .ARM.attributes
                0x00000287       0x29 D:\ToolChain3\arm-none-eabi\lib\thumb2\libm.a(lib_a-w_sqrt.o)
 .ARM.attributes
                0x000002b0       0x29 D:\ToolChain3\arm-none-eabi\lib\thumb2\libm.a(lib_a-wf_exp.o)
 .ARM.attributes
                0x000002d9       0x29 D:\ToolChain3\arm-none-eabi\lib\thumb2\libm.a(lib_a-e_rem_pio2.o)
 .ARM.attributes
                0x00000302       0x29 D:\ToolChain3\arm-none-eabi\lib\thumb2\libm.a(lib_a-e_sqrt.o)
 .ARM.attributes
                0x0000032b       0x29 D:\ToolChain3\arm-none-eabi\lib\thumb2\libm.a(lib_a-ef_exp.o)
 .ARM.attributes
                0x00000354       0x29 D:\ToolChain3\arm-none-eabi\lib\thumb2\libm.a(lib_a-k_cos.o)
 .ARM.attributes
                0x0000037d       0x29 D:\ToolChain3\arm-none-eabi\lib\thumb2\libm.a(lib_a-k_rem_pio2.o)
 .ARM.attributes
                0x000003a6       0x29 D:\ToolChain3\arm-none-eabi\lib\thumb2\libm.a(lib_a-k_sin.o)
 .ARM.attributes
                0x000003cf       0x29 D:\ToolChain3\arm-none-eabi\lib\thumb2\libm.a(lib_a-s_fabs.o)
 .ARM.attributes
                0x000003f8       0x29 D:\ToolChain3\arm-none-eabi\lib\thumb2\libm.a(lib_a-s_fpclassify.o)
 .ARM.attributes
                0x00000421       0x29 D:\ToolChain3\arm-none-eabi\lib\thumb2\libm.a(lib_a-s_lib_ver.o)
 .ARM.attributes
                0x0000044a       0x29 D:\ToolChain3\arm-none-eabi\lib\thumb2\libm.a(lib_a-s_matherr.o)
 .ARM.attributes
                0x00000473       0x29 D:\ToolChain3\arm-none-eabi\lib\thumb2\libm.a(lib_a-s_scalbn.o)
 .ARM.attributes
                0x0000049c       0x29 D:\ToolChain3\arm-none-eabi\lib\thumb2\libm.a(lib_a-sf_finite.o)
 .ARM.attributes
                0x000004c5       0x29 D:\ToolChain3\arm-none-eabi\lib\thumb2\libm.a(lib_a-s_copysign.o)
 .ARM.attributes
                0x000004ee       0x29 D:\ToolChain3\arm-none-eabi\lib\thumb2\libc.a(lib_a-errno.o)
 .ARM.attributes
                0x00000517       0x29 D:\ToolChain3\arm-none-eabi\lib\thumb2\libc.a(lib_a-impure.o)
 .ARM.attributes
                0x00000540       0x29 D:\ToolChain3\arm-none-eabi\lib\thumb2\libc.a(lib_a-memset.o)
 .ARM.attributes
                0x00000569       0x1a D:\ToolChain3\lib\gcc\arm-none-eabi\4.5.2\libgcc.a(_divsi3.o)
 .ARM.attributes
                0x00000583       0x18 D:\ToolChain3\lib\gcc\arm-none-eabi\4.5.2\libgcc.a(_dvmd_tls.o)
 .ARM.attributes
                0x0000059b       0x1a D:\ToolChain3\lib\gcc\arm-none-eabi\4.5.2\libgcc.a(_arm_addsubdf3.o)
 .ARM.attributes
                0x000005b5       0x1a D:\ToolChain3\lib\gcc\arm-none-eabi\4.5.2\libgcc.a(_arm_muldivdf3.o)
 .ARM.attributes
                0x000005cf       0x1a D:\ToolChain3\lib\gcc\arm-none-eabi\4.5.2\libgcc.a(_arm_cmpdf2.o)
 .ARM.attributes
                0x000005e9       0x1a D:\ToolChain3\lib\gcc\arm-none-eabi\4.5.2\libgcc.a(_arm_fixdfsi.o)
 .ARM.attributes
                0x00000603       0x1a D:\ToolChain3\lib\gcc\arm-none-eabi\4.5.2\libgcc.a(_arm_fixunsdfsi.o)
 .ARM.attributes
                0x0000061d       0x1a D:\ToolChain3\lib\gcc\arm-none-eabi\4.5.2\libgcc.a(_arm_truncdfsf2.o)
 .ARM.attributes
                0x00000637       0x1a D:\ToolChain3\lib\gcc\arm-none-eabi\4.5.2\libgcc.a(_arm_addsubsf3.o)
 .ARM.attributes
                0x00000651       0x1a D:\ToolChain3\lib\gcc\arm-none-eabi\4.5.2\libgcc.a(_arm_muldivsf3.o)
 .ARM.attributes
                0x0000066b       0x1a D:\ToolChain3\lib\gcc\arm-none-eabi\4.5.2\libgcc.a(_arm_cmpsf2.o)
 .ARM.attributes
                0x00000685       0x1a D:\ToolChain3\lib\gcc\arm-none-eabi\4.5.2\libgcc.a(_arm_fixsfsi.o)

.debug_frame

Cross Reference Table

Symbol                                            File
ADDASCII                                          three.o
ADDR_LOGIC_HI                                     three.o
ADDR_LOGIC_LO                                     three.o
ADFrame                                           three.o
ADFrame1                                          three.o
ANA_DLY_FLAG                                      three.o
ASA_Byte_RXD1                                     three.o
ASA_Byte_RXD2                                     three.o
ASCIICommunication_Call                           ASCIIComm.o
                                                  three.o
ASCIIFormat                                       three.o
ASCIIKey                                          three.o
ASCIIStringData1                                  three.o
ASCIIStringData2                                  three.o
ASCIIStringLength                                 three.o
ASCII_D_E_Buff                                    three.o
ASCII_Keypad_Style                                three.o
ASCII_Transmit1_760                               three.o
ASCII_Transmit2_760                               three.o
ASCII_counter1                                    three.o
ASCII_counter2                                    three.o
AbortPassword                                     three.o
Abort_Handler_message                             two.o
AcceptDataEntry                                   three.o
AcceptPassword                                    three.o
AcceptPopupDataEntry                              three.o
Access_Counter                                    three.o
AcknowledgeAlarm                                  three.o
AcknowledgeAllAlarms                              three.o
AddAlarmToFlash                                   three.o
AddErrorToHistory                                 three.o
AddInNible                                        three.o
AddInNibleloop                                    three.o
AddMaths                                          three.o
AddValue                                          three.o
Add_BCD                                           three.o
Add_Sub_cnstval_tag                               three.o
Add_tagB_tagA                                     three.o
Addr2Byte                                         three.o
Addr2BytePort1                                    three.o
AddrPort1Byte                                     three.o
AddrRead4Byte                                     three.o
AddrRead4BytePort                                 three.o
AddrRead4BytePort1                                three.o
AddrReadByte1                                     three.o
AddrReadBytePort1                                 three.o
AddtoHistory                                      three.o
Adjust_Byte                                       three.o
Adv_Bitmap                                        three.o
AfterHidingTask                                   three.o
AlarmBit                                          three.o
AlarmNo                                           three.o
AlarmNo_E                                         three.o
AlarmPointer                                      three.o
AlarmRecordCounter                                three.o
AlarmScanTime                                     three.o
AlarmTag                                          three.o
AlarmType                                         three.o
AlarmWindow                                       three.o
Alarm_History_Buffer                              three.o
Alarm_Window                                      three.o
Alarm_X_EdgeLimit                                 three.o
Alarmgrp                                          three.o
Alarmpage                                         three.o
Alarmsort                                         three.o
Alarmstatechange                                  three.o
All_Usb_Frame_Completed                           three.o
AllowMaxPLCBlockSize1                             three.o
AllowMaxPLCBlockSize2                             three.o
AnaEEPAddr                                        Product_Info.o
AnaModel                                          Product_Info.o
AnalogMeter                                       three.o
AnimationBytes                                    three.o
Anolog_Functions                                  three.o
Application_Complete_Flag                         three.o
Application_Present                               three.o
Appln_Erase                                       three.o
Appln_posn                                        three.o
Appln_ptr                                         three.o
Applupload_Buff                                   three.o
AssociatedScreen                                  three.o
AssociatedScreenPtr                               three.o
AttachDone1                                       three.o
AttachDone2                                       three.o
AttachFailedNodes1                                three.o
AttachFailedNodes2                                three.o
AttachFailedNodesCnt1                             three.o
AttachFailedNodesCnt2                             three.o
AttachFailedNodesCntExp                           three.o
AttachFailedNodesEnable1                          three.o
AttachFailedNodesEnable2                          three.o
AttachFailedNodesExp                              three.o
BACKLIT_CONTROL                                   two.o
                                                  three.o
BCDToInt                                          three.o
BCD_Hex                                           three.o
BCD_reg_data                                      three.o
BGCMDQ1                                           three.o
BGCMDQ1_Rec                                       three.o
BGCMDQ2                                           three.o
BGCMDQ2_Rec                                       three.o
BGNodeAddr                                        three.o
BGNodeAddr2                                       three.o
BGRegLength1                                      three.o
BGRegLength2                                      three.o
BGStatusBit1                                      three.o
BGStatusBit2                                      three.o
BGStr1                                            three.o
BGStr2                                            three.o
BGStrLen1                                         three.o
BGStrLen2                                         three.o
BGTASK_Status1                                    three.o
BGTASK_Status2                                    three.o
BGTask1                                           three.o
BGTask2                                           three.o
BGTaskCntr1                                       three.o
BGTaskCntr2                                       three.o
BGTaskCommandSent1                                three.o
BGTaskCommandSent2                                three.o
BGTaskCount1                                      three.o
BGTaskCount2                                      three.o
BGTaskCount3                                      three.o
BGTaskDelayFlag                                   three.o
BGTaskExec1                                       three.o
BGTaskExec2                                       three.o
BGTaskPtr_G1                                      three.o
BGTaskPtr_G2                                      three.o
BGTaskPtr_G3                                      three.o
BGTaskPtr_W1                                      three.o
BGTaskPtr_W2                                      three.o
BGTaskPtr_W3                                      three.o
BGTaskTillDelayExecuted                           three.o
BackPlaneCmd                                      three.o
BackSpace                                         three.o
Backlit_FP4020                                    three.o
Backlit_val_FP4020                                three.o
BackupMemoryFull                                  three.o
BarGraphOn                                        three.o
Bargraph                                          three.o
BatDelay                                          three.o
BatVoltage                                        three.o
Battery_BackupRAM_read                            three.o
Battery_BackupRAM_write                           three.o
BaudRate1                                         three.o
BaudRate2                                         three.o
Baud_Addr_local_buff                              three.o
Baud_Addr_local_buff2                             three.o
Baud_update1                                      three.o
Baud_update2                                      three.o
Bcc                                               three.o
Bcc1                                              three.o
Beeper_Cntrl                                      three.o
Beeper_Status                                     three.o
Beeper_update                                     three.o
BeforeDelayTaskLoc                                three.o
BeforeShowingTask                                 three.o
BeforeWaitDelayFlag                               three.o
BitLamp                                           three.o
BitOperation                                      three.o
BitOperationPort1                                 three.o
Bit_no                                            three.o
Bitmap                                            three.o
Bkcolor                                           three.o
Block1UpdatingStarted                             three.o
Block2UpdatingStarted                             three.o
BlockCommand                                      three.o
BlockCommand_Read                                 three.o
BlockNo                                           three.o
BlockSize                                         three.o
BlockSize1                                        three.o
BlockSizePort1                                    three.o
BmpMsg                                            three.o
Border                                            three.o
Botoffset                                         three.o
BreakComplete1                                    three.o
BreakComplete2                                    three.o
Brightness_Cntrl                                  three.o
BroadCastBlockType1                               three.o
BroadCastBlockType2                               three.o
BroadCastBlocks1                                  three.o
BroadCastBlocks2                                  three.o
BroadCastDataAdd1                                 three.o
BroadCastDataAdd2                                 three.o
BroadCastEnable1                                  three.o
BroadCastEnable2                                  three.o
BroadCastEnableBit1                               three.o
BroadCastEnableBit2                               three.o
BroadCastModbusAdd1                               three.o
BroadCastModbusAdd2                               three.o
BroadCastModbusTag1                               three.o
BroadCastModbusTag2                               three.o
BroadCastPtr                                      three.o
BuffCount                                         three.o
BuffCount1                                        three.o
BufferFullAction                                  three.o
Bumpless_Transfer                                 three.o
Buzz                                              two.o
Buzzer_On                                         three.o
                                                  two.o
ByteFormatPort1                                   three.o
ByteFormatPort2                                   three.o
ByteFormatPort4                                   three.o
ByteRec                                           three.o
ByteSize                                          three.o
ByteToBeSend1                                     three.o
ByteToBeSend2                                     three.o
ByteofTag                                         three.o
CALIBRATION                                       Product_Info.o
CAL_BUFF                                          Product_Info.o
CH1_CONFIG                                        three.o
CH2_CONFIG                                        three.o
CHECK_PLC_MODE                                    three.o
CLRRST                                            three.o
CLRSCLK                                           three.o
CLRSDAIO                                          three.o
CMD                                               three.o
CMDPtr                                            three.o
CMDQ1                                             three.o
CMDQ1_TagNamePointer                              three.o
CMDQ2                                             three.o
CMDQ2_TagNamePointer                              three.o
CMDQ3                                             three.o
CMDQ4                                             three.o
CMDQAttachDone1                                   three.o
CMDQAttachDone2                                   three.o
CMDQEth                                           three.o
COL_BY                                            Product_Info.o
                                                  three.o
                                                  two.o
COL_COM                                           Product_Info.o
                                                  three.o
                                                  two.o
COL_UNIT                                          Product_Info.o
                                                  three.o
                                                  two.o
COMMAND                                           two.o
COPY_RAM_TO_ROM                                   Product_Info.o
CRCreg                                            three.o
CacheDisable                                      three.o
CacheEnable                                       three.o
CalKeyCalibNew                                    three.o
Calc_Point                                        three.o
Calc_float                                        three.o
CalculateCrc4                                     three.o
CalculateEventPTR                                 three.o
CalculateHeight                                   three.o
CalibrationFlag                                   three.o
CallDelay                                         two.o
CallDelay1S                                       two.o
CallPrintDelay                                    three.o
CancleDataEntry                                   three.o
Carry                                             three.o
ChangeAcktime                                     three.o
ChangeOFFtime                                     three.o
ChangeONtime                                      three.o
ChangeRTC                                         three.o
ChangeScale                                       three.o
Changename                                        three.o
Channel1_Configuration                            three.o
Channel2_Configuration                            three.o
CharObjCnt                                        three.o
CheckDummyHeapResponse1                           77701a.o
                                                  three.o
CheckDummyHeapResponse2                           77702a.o
                                                  three.o
CheckEaglePLC                                     three.o
CheckEndOfSentFrame1                              77701a.o
CheckEndOfSentFrame2                              77702a.o
CheckForFailedNodes1                              three.o
CheckForFailedNodes2                              three.o
CheckForGe1                                       three.o
CheckForGe2                                       three.o
CheckHoriOrVer                                    three.o
CheckIfApplPresent                                three.o
CheckIfIBMonPort1                                 three.o
                                                  77701a.o
CheckIfIBMonPort2                                 three.o
                                                  77702a.o
CheckIfLadderPresent                              three.o
CheckIfNodePresentOnPort1                         three.o
CheckIfNodePresentOnPort2                         three.o
CheckLocalKey                                     three.o
CheckMathOprations                                three.o
CheckMemory                                       three.o
CheckPLC                                          three.o
CheckPlc1WrResp                                   77701a.o
                                                  three.o
CheckPlc2WrResp                                   77702a.o
                                                  three.o
CheckPopupKey                                     three.o
CheckPowerDownMemory                              three.o
CheckResponse1                                    77701a.o
                                                  three.o
CheckResponse2                                    77702a.o
                                                  three.o
CheckSpecialPLC1                                  three.o
CheckSpecialPLC2                                  three.o
CheckSpecialPLCFW                                 three.o
CheckTagError                                     three.o
CheckUsbComm                                      three.o
CheckValidDate                                    three.o
CheckValidDownloadByte                            three.o
CheckWordLength                                   three.o
Check_Reset_Bit                                   three.o
Check_Reset_Input                                 three.o
Check_SoftGate_Bit                                three.o
Checkkeyinpopup                                   three.o
Checksum_Error_Bit1                               three.o
Checksum_Error_Bit2                               three.o
ChkLCDpage                                        two.o
Chk_Fact_Appln_Req                                three.o
ClearASCIIString                                  three.o
ClearArea                                         three.o
ClearDataEntry                                    three.o
ClearDisp                                         two.o
                                                  three.o
ClearHistAlrmRAM                                  three.o
ClearMemOk                                        three.o
ClearPassword                                     three.o
ClearPrintBuff                                    three.o
ClearScreen                                       two.o
                                                  three.o
ClearString                                       three.o
ClearTask                                         three.o
ClearTxd1                                         three.o
ClearTxd2                                         three.o
Clear_Log                                         three.o
Clear_Timer_Vars                                  three.o
ClosePopupScreen                                  three.o
CoilSize                                          three.o
ColorAnimation                                    three.o
ColorChange                                       two.o
                                                  three.o
Column_Index                                      three.o
Com1Delay                                         three.o
Com1DelayTask                                     77701a.o
                                                  three.o
Com1Timespan                                      three.o
Com2Delay                                         three.o
Com2DelayTask                                     77702a.o
                                                  three.o
Com2Timespan                                      three.o
Comm1Buff                                         77701a.o
                                                  three.o
Comm2Buff                                         77702a.o
                                                  three.o
Comm5BuffRead                                     three.o
CommTimeOut1                                      three.o
CommTimeOut2                                      three.o
CommTimeOut3                                      three.o
CommTimeOut4                                      three.o
CommandQueueEmpty                                 three.o
CommandReq                                        three.o
CommandReqPort1                                   three.o
Communication_response                            three.o
CompPrevFloatVal                                  three.o
CompPrevValinInt                                  three.o
Config_MW_Reg_Write_Bit                           three.o
Config_MW_Register                                three.o
                                                  two.o
ConfigurePort1ToIBM                               three.o
                                                  77701a.o
ConfigurePort2ToIBM                               three.o
                                                  77702a.o
Configure_Query                                   three.o
Configure_Query_No                                three.o
ConnectToExp                                      three.o
ConstartChange                                    two.o
                                                  three.o
Contrast_Cntrl                                    three.o
ConvBuffToReg                                     three.o
Conversion_buf                                    three.o
CoordREdraw                                       three.o
CopyPLCBlkToRecipe                                three.o
CopyRTCToPLCBlk                                   three.o
CopyRecipeToPLCBlk                                three.o
CopyStrChar                                       three.o
CopyStrCharToInt                                  three.o
CopyTagSTR_InGlobal                               three.o
CopyTagSTR_InGlobal_Ptr                           three.o
Copy_LCDBufftoScreen                              three.o
Copy_ScreenToLCDBuff                              three.o
Copy_tagB_tagA                                    three.o
Copy_tag_LED                                      three.o
Copy_tag_STR                                      three.o
CounterCoil                                       three.o
CounterRegister                                   three.o
                                                  two.o
Crc4Hi                                            three.o
Crc4Lo                                            three.o
CrcHiVal                                          three.o
CrcLoVal                                          three.o
CrossBytes                                        two.o
CurrBlock                                         three.o
CurrBlockInPort1                                  three.o
CurrBlockInPort2                                  three.o
CurrBlockPort1                                    three.o
CurrNodeAddress1                                  three.o
CurrNodeAddress2                                  three.o
CurrRxState1                                      three.o
CurrRxState2                                      three.o
CurrTagPtr                                        three.o
CurrTagPtrPort1                                   three.o
CurrWaitTillFlag                                  three.o
Curr_Flash_Alarm_Ptr                              three.o
CurrentRateVal                                    three.o
Current_Settings                                  three.o
Cursor                                            three.o
CursorLoc                                         three.o
CursorPos                                         three.o
CursorX                                           three.o
CursorY                                           three.o
DATA_MONITOR_FLAG                                 three.o
DEByteSize                                        three.o
DEDataType                                        three.o
DEHideData                                        three.o
DEobjno                                           three.o
DEobjtype                                         three.o
DEscrno                                           three.o
DXPix2                                            three.o
DXVtg2                                            three.o
DYPix2                                            three.o
DYVtg2                                            three.o
D_E_AnimationBytes                                three.o
D_E_Bit_No                                        three.o
D_E_DataType                                      three.o
D_E_HideData                                      three.o
D_E_KeypadType                                    three.o
D_E_ObjType                                       three.o
D_E_SignData                                      three.o
D_E_no_of_digit                                   three.o
D_E_obj_no                                        three.o
D_E_screen_obj_ptr                                three.o
D_e_buf                                           three.o
DataEntryWidth                                    three.o
DataEntry_obj_ptr                                 three.o
DataEntrypobj_no                                  three.o
DataFactor                                        three.o
DataLogMemoryErasing                              three.o
DataLoggingInProcess1                             three.o
DataLoggingInProcess2                             three.o
DataType                                          three.o
DataTypeFormat                                    three.o
Data_Download_Mode                                three.o
Data_Download_complt                              three.o
Data_Entry_Obj_Cnt                                three.o
Data_Reg_Arry                                     three.o
                                                  two.o
Data_entry_cnt                                    three.o
Data_entry_on                                     three.o
Data_entry_var                                    three.o
Datalength                                        three.o
Date                                              three.o
Datechange                                        three.o
Dbits_Addr_local_buff                             three.o
Dbits_Addr_local_buff2                            three.o
Dbits_update1                                     three.o
Dbits_update2                                     three.o
DcrDate                                           three.o
DcrDay                                            three.o
DcrHr                                             three.o
DcrMin                                            three.o
DcrMonth                                          three.o
DcrSec                                            three.o
DcrYr                                             three.o
Dec_Cursor                                        three.o
DecimalEntry                                      three.o
DecimalPt                                         three.o
Decode_Regno                                      three.o
Decode_Regno1                                     three.o
Decode_Regno2                                     three.o
DecrBit                                           three.o
DecrDigiBy1                                       three.o
DecrValBy1                                        three.o
DecrValByNibble                                   three.o
Del0S                                             three.o
Del0SDun                                          three.o
Del100mS                                          three.o
Del100mSDun                                       three.o
Del10mS                                           three.o
Del10mSDun                                        three.o
Del1S                                             three.o
Del1SDun                                          three.o
Del20mS                                           three.o
Del20mSDun                                        three.o
Del250mS                                          three.o
Del250mSDun                                       three.o
Del500mS                                          three.o
Del500mSDun                                       three.o
Delay                                             three.o
Delay5_sec_count                                  three.o
Delay5_sec_flag                                   three.o
DelayAfterBreak1                                  three.o
DelayAfterBreak2                                  three.o
DelayAfterBreakCount1                             three.o
DelayAfterBreakCount2                             three.o
DelayCount                                        three.o
DelayCountValue                                   three.o
DelayFlag                                         three.o
DelayTaskLoc                                      three.o
Delay_10ms                                        three.o
Delay_1ms                                         three.o
Delay_FHWT                                        three.o
Delay_w_task                                      three.o
DestTagPort                                       three.o
DetectShowHide                                    three.o
DetectShowHideNew                                 three.o
Device_Info_Buffer                                three.o
DigitBuff                                         three.o
DigitBuff1                                        three.o
DigitFactor                                       three.o
Direction                                         three.o
DisCom1                                           three.o
DisCom2                                           three.o
DisExInt                                          three.o
DisHSPWM                                          three.o
DisHighSpeedTimer                                 three.o
DisTimer0                                         three.o
DisTimer3                                         three.o
DisableTransmit1                                  77701a.o
DisableTransmit2                                  77702a.o
Disable_MAM                                       three.o
Disable_RcvInt                                    three.o
DispCharbmp                                       three.o
DispCheckPLCMsg                                   three.o
DispCross                                         two.o
                                                  three.o
DispDriverMsg                                     three.o
DispMsg                                           three.o
                                                  two.o
DispMsg_BOOT                                      three.o
DispPrintingMsg                                   three.o
DispScrnNotDefinMsg                               three.o
DispText                                          three.o
                                                  two.o
DispText2                                         three.o
DispYlable                                        three.o
DisplayASCII                                      three.o
DisplayASCIIDataEntry                             three.o
DisplayAppliMessage                               three.o
DisplayAreaFont                                   three.o
DisplayAttachedNodes1                             three.o
DisplayAttachedNodes2                             three.o
DisplayBitmap                                     three.o
DisplayBkColor                                    three.o
DisplayDataEntry                                  three.o
DisplayDriverMsg                                  three.o
DisplayEditCoil                                   three.o
DisplayLadderMessage                              three.o
DisplayMajors                                     three.o
DisplayNodeNo                                     three.o
DisplayNotAttachedNodes1                          three.o
DisplayNotAttachedNodes2                          three.o
DisplayNumericASCII                               three.o
DisplayNumericASCIIDataEntry                      three.o
DisplayPowerOnMsg                                 three.o
DisplayPowerUpMsg                                 two.o
DisplayScreen                                     three.o
DisplayTextColor                                  three.o
Display_BCD                                       three.o
Display_Binary                                    three.o
Display_DataDwnld_Messg                           three.o
Display_Expansion_Status_Mesg                     three.o
Display_Float                                     three.o
Display_HALTMODE_Messg                            three.o
Display_HEX                                       three.o
Display_HOLDMODE_Messg                            three.o
Display_IOmismatch_Messg                          three.o
Display_STOPMODE_Messg                            three.o
Display_Sin_int                                   three.o
Display_Un_int                                    three.o
Display_digit                                     three.o
Displaydigit                                      three.o
DnCoil                                            three.o
DoTask                                            three.o
DontIncrementMessageID1                           three.o
DontIncrementMessageID2                           three.o
DontSave_ConfigReg                                three.o
                                                  two.o
DontShiftCmdQ1                                    three.o
DontShiftCmdQ2                                    three.o
DoubleBorder                                      three.o
DownloadCount                                     three.o
DownloadCount1                                    three.o
DownloadCount3                                    three.o
DownloadFlag                                      three.o
DownloadFlag1                                     three.o
DownloadFlag3                                     three.o
Download_Byte                                     three.o
DrawMainScrObj                                    three.o
DrawPixel                                         three.o
Driver1Retry                                      77701a.o
                                                  three.o
Driver2Retry                                      77702a.o
                                                  three.o
DriverDelayHandler                                three.o
DriverNum1                                        three.o
DriverNum2                                        three.o
DriverScanTime1                                   three.o
DriverScanTime2                                   three.o
Drv1Del1S                                         77701a.o
                                                  three.o
Drv1Del1SDun                                      three.o
Drv1Timeout                                       77701a.o
                                                  three.o
Drv2Del1S                                         77702a.o
                                                  three.o
Drv2Del1SDun                                      three.o
Drv2Timeout                                       77702a.o
                                                  three.o
DummyComm1                                        three.o
DummyComm2                                        three.o
DummyCommunication                                77702a.o
                                                  three.o
DummyCommunication1                               77701a.o
                                                  three.o
DummyScan                                         three.o
DummyScan2                                        three.o
DwordFormatPort1                                  three.o
DwordFormatPort2                                  three.o
DwordIntFormatPort1                               three.o
DwordIntFormatPort2                               three.o
EEPROM_sequential_read                            three.o
EPAdr                                             three.o
ERROR_CODE                                        three.o
ERROR_MODE_ENTRY                                  three.o
EVENT_BASE_PTR                                    three.o
EXEC_PLC_ASCII1                                   three.o
EXEC_PLC_ASCII2                                   three.o
EXP                                               three.o
EXPInitDone                                       three.o
EXP_CMDQ1                                         three.o
EXP_TIMEOUT_CNT                                   three.o
EXP_ptr                                           three.o
EditCoil                                          three.o
EditReg                                           three.o
Ellipse                                           three.o
EmptyRectangle                                    three.o
EnExInt                                           three.o
Enable1                                           three.o
Enable2                                           three.o
EnableScrSvrPass                                  three.o
EnableTransmit1                                   77701a.o
EnableTransmit2                                   77702a.o
Enable_Control                                    three.o
Enable_FPU                                        three.o
Enable_Focus_Static_DataEntry                     three.o
Enable_MAM                                        three.o
End                                               three.o
EndAngle                                          three.o
EndBlockAdd                                       two.o
EndOfFrame1                                       77701a.o
                                                  three.o
EndOfFrame2                                       77702a.o
                                                  three.o
ErrorInfo_Data                                    three.o
ErrorMode                                         three.o
EventLoggerDefined                                three.o
Eventcounter                                      three.o
ExIntr0ISR1                                       three.o
ExIntr0ISR2                                       three.o
ExIntr1ISR                                        three.o
ExIntr1ISR2                                       three.o
ExIntr2ISR                                        three.o
ExecuteLogic                                      three.o
ExecutePLCLogicBlock                              three.o
Exp                                               three.o
ExpBlockCount                                     three.o
ExpBlockPtr                                       three.o
ExpConnCnt                                        three.o
ExpConnected                                      three.o
ExpCurrNodeAddress                                three.o
ExpGlobalBlockCntr                                three.o
ExpListOfBlocks                                   three.o
ExpNodeAddr                                       three.o
ExpNodeAttached                                   three.o
ExpPortErrorStatus                                three.o
ExpProtocol                                       three.o
ExpPtr                                            three.o
ExpRetryCount                                     three.o
ExpScreenChange                                   three.o
ExpTagStatus                                      three.o
ExpTagTable                                       three.o
ExpTagTableUpdated                                three.o
ExpTimeOut                                        three.o
ExpTimeOutCnt                                     three.o
Exp_Interbyte_Delay_Count                         three.o
ExpansionPtr                                      three.o
ExtRecordCounter                                  three.o
Ext_HistPtrOffset                                 three.o
F1_Touched                                        three.o
F2_Touched                                        three.o
F3_Touched                                        three.o
FGStringLength1                                   three.o
FHWT_KEYPAD_TEST                                  three.o
FHWT_Result                                       three.o
FIQ_Enable                                        three.o
FIQ_EnableBROWN                                   three.o
FONT_BY                                           Product_Info.o
                                                  three.o
                                                  two.o
FONT_COMP                                         Product_Info.o
                                                  three.o
                                                  two.o
FONT_UNIT                                         Product_Info.o
                                                  three.o
                                                  two.o
FP30_Upload_Main                                  three.o
FWD_REV                                           three.o
FactApplEnter                                     three.o
Fact_Appln                                        three.o
FailedNodeAddr1                                   three.o
FailedNodeAddr2                                   three.o
FailedNodeCnt1                                    three.o
FailedNodeCnt2                                    three.o
FastFlash                                         three.o
Fi                                                two.o
FillAlarmTables                                   three.o
                                                  two.o
FillBargraph                                      three.o
FillBroadCastCMDQ1                                three.o
FillBroadCastCMDQ2                                three.o
FillContainer                                     three.o
FillPattern                                       three.o
FillXaxislable                                    three.o
Fill_Device_Info_Buffer                           three.o
FilledEllipse                                     three.o
FilledRoundRectangle                              three.o
FindMask                                          three.o
FindObj                                           three.o
FindOffset                                        three.o
Findmeterpoints                                   three.o
Firm_Rev_Appl                                     three.o
Firmware_Erase                                    three.o
FirstAlarmColumn                                  three.o
FirstDataByte                                     three.o
FirstDataByte2                                    three.o
FirstHistAlarmColumn                              three.o
FirstIBMtimeOut1                                  three.o
FirstIBMtimeOut2                                  three.o
FirstLoopGlobleTask                               three.o
First_loop                                        three.o
Fj                                                two.o
Flash                                             three.o
FlashAddr                                         two.o
FlashErase_FHWT                                   two.o
FlashProgram_FHWT                                 two.o
FlashRate                                         three.o
Flashsize                                         three.o
FloatArry                                         three.o
FloatFactor                                       three.o
FloatFlag                                         three.o
FloatRet                                          two.o
Focus                                             three.o
FontMultiX                                        three.o
FontMultiY                                        three.o
FontMultiplier                                    three.o
Font_ptr                                          two.o
FormKeyCode                                       three.o
FrameCount1                                       three.o
FrameCount2                                       three.o
FrameEnd1                                         77701a.o
                                                  three.o
FrameEnd2                                         77702a.o
                                                  three.o
FrameLength1                                      77701a.o
                                                  three.o
FrameLength2                                      77702a.o
                                                  three.o
FrameNotCompleted1                                three.o
FrameNotCompleted2                                three.o
FramePartiallyReceived1                           three.o
FramePartiallyReceived2                           77702a.o
                                                  three.o
FrameProcessTime                                  three.o
FunCode1                                          three.o
FunCode2                                          three.o
GeFlag1                                           three.o
GeFlag2                                           three.o
GetAsciiInfo                                      three.o
GetCommPar1                                       three.o
GetCommPar2                                       three.o
GetIBMID1                                         three.o
GetIBMID2                                         three.o
GetNextByteInResponse1                            77701a.o
                                                  three.o
GetNextByteInResponse2                            77702a.o
                                                  three.o
GetResponse1                                      three.o
GetResponse2                                      three.o
GetYminmax                                        three.o
Getdatatype                                       three.o
Getfillpattern                                    three.o
Gettagvalue                                       three.o
GettagvalueForWizard                              three.o
GlobalBlockCntr1                                  three.o
GlobalBlockCntr2                                  three.o
GlobalBlockCntr3                                  three.o
GlobalKeyFound                                    three.o
GlobalPressTaskBytes                              three.o
GlobalPressedTaskBytes                            three.o
GlobalRelease                                     three.o
GlobalReleasedTaskBytes                           three.o
GlobalTempPointer                                 three.o
Global_no_of_press_task                           three.o
Global_no_of_pressed_task                         three.o
Global_no_of_released_task                        three.o
Global_temp_hi                                    three.o
GlobleTask                                        three.o
HEXToUnsignedLong                                 three.o
HI                                                three.o
HOLD_Previous_PLC_Mode                            three.o
HRR                                               three.o
HSC_Inverted_Logic1                               three.o
HSC_Inverted_Logic2                               three.o
HSC_Set1                                          three.o
HSC_Set2                                          three.o
HSC_count0                                        three.o
HSC_count1                                        three.o
HSC_count2                                        three.o
HSC_count3                                        three.o
HSINP_Config                                      three.o
HSPWM                                             three.o
HSPWM_Channel1_NoOfPulses                         three.o
HSPWM_Channel2_NoOfPulses                         three.o
HSPWM_Channel_Config                              three.o
HSPWM_Hardware_Channel_Config                     three.o
HSPWM_Hardware_Config                             three.o
HSPWM_Prev_Duty_Cycle                             three.o
HSPWM_Prev_Freq                                   three.o
HSPWM_Ramp_Time                                   three.o
HSPWM_RunBit                                      three.o
HSPWM_STOP_RunBit                                 three.o
HSPWM_TempDecTime                                 three.o
HSPWM_TotalTime                                   three.o
HaltModeMessageDisplayed                          three.o
Halt_Command_Before_Download                      three.o
Halt_Mode_Retain_Flag_BW                          three.o
Halt_Mode_Retain_Flag_Counter                     three.o
Halt_Mode_Retain_Flag_Data                        three.o
Halt_Mode_Retain_Flag_Timer                       three.o
HardwareInit                                      three.o
Hex                                               three.o
HiAddr                                            three.o
HiLow1                                            ASCIIComm.o
HiLow2                                            ASCIIComm.o
HideData                                          three.o
HighLimit                                         three.o
HighSpeedCounter                                  three.o
HighSpeedISR                                      three.o
HistAlarmPresent                                  three.o
HistAlarmWindow                                   three.o
HistAlarm_Window                                  three.o
HistAlarm_X_EdgeLimit                             three.o
HistColumn_Index                                  three.o
HistPtr                                           three.o
HistPtrOffset                                     three.o
HistTextPtr                                       three.o
HistTotalNoOfClms                                 three.o
HistTrend4Byte                                    three.o
HistTrend4ByteFlag                                three.o
Hist_Severity                                     three.o
Histtrend_Window                                  three.o
HoldModeMessageDisplayed                          three.o
Home                                              three.o
Host_enumerated_device                            three.o
IBM1ISR                                           three.o
IBM2ISR                                           three.o
IBMDownload1                                      three.o
IBMDownload2                                      three.o
IBMFlag1                                          three.o
IBMFlag2                                          three.o
IBMRxCounter1                                     three.o
IBMRxCounter2                                     three.o
IBM_Download_Byte_1                               three.o
IBM_Download_Byte_2                               three.o
IBM_Download_Check                                three.o
IBM_Download_Flags1                               three.o
IBM_Download_Flags2                               three.o
IFDelayPort1                                      three.o
IFDelayPort2                                      three.o
IOInit                                            three.o
IOUpdateinProgress                                three.o
IOmismatch                                        three.o
IbmComm                                           three.o
                                                  two.o
IbmCommunication                                  three.o
                                                  two.o
IbmDelCount1                                      three.o
IbmDelCount2                                      three.o
IbmMode1                                          three.o
IbmMode2                                          three.o
IbmTimeOut1                                       three.o
IbmTimeOut2                                       three.o
Ident                                             three.o
IgnoreGlobalTask                                  three.o
IgnoreSampleFlag                                  three.o
Ilc                                               three.o
Ilc0                                              three.o
InValKey                                          three.o
InValKeyBuz                                       two.o
                                                  three.o
In_Fact_Appln                                     three.o
IncrBit                                           three.o
IncrDate                                          three.o
IncrDay                                           three.o
IncrDigiBy1                                       three.o
IncrHr                                            three.o
IncrMin                                           three.o
IncrMonth                                         three.o
IncrSec                                           three.o
IncrValBy1                                        three.o
IncrValByNibble                                   three.o
IncrYr                                            three.o
Incrementtime                                     three.o
IndexRegister                                     three.o
InitArray                                         three.o
InitComPort                                       three.o
InitComPort2                                      three.o
InitComPortMPI                                    three.o
InitExInt                                         three.o
InitExpansion                                     three.o
InitFontPtrs                                      two.o
                                                  three.o
InitHighSpeedTimer                                three.o
InitMsg                                           three.o
InitRAMRTC                                        three.o
InitRtc                                           three.o
InitScreen                                        two.o
                                                  three.o
InitScreenPara                                    three.o
InitScreen_Refresh                                two.o
                                                  three.o
InitTimer                                         three.o
InitTimer0                                        three.o
InitTimer3                                        three.o
InitTimerInt                                      three.o
InitWDT                                           two.o
Init_ExtINT1                                      three.o
Init_ExtINT2                                      three.o
Init_Keep_Mem                                     three.o
Init_Mem_except_Keep                              three.o
Init_PIT1Timer                                    three.o
InitializeScreenChangePar1                        three.o
InitializeScreenChangePar2                        three.o
Initialize_Beeper                                 three.o
Initialize_Brightness                             three.o
Initialize_Contrast                               three.o
InnerBCDAddloop                                   three.o
InnerBCDSubloop                                   three.o
InputCoil                                         three.o
InstallGpioTchInt                                 three.o
IntToBCD                                          three.o
Int_Cursor                                        three.o
InterFrameDelay1                                  three.o
InterFrameDelay2                                  three.o
Interframe_Delay1                                 three.o
Interframe_Delay2                                 three.o
InternalCoil                                      three.o
                                                  two.o
Internal_Tag_DataBase                             three.o
IsHio05Product                                    three.o
IsKeypadProduct                                   three.o
IsNumericKeypadProduct                            three.o
IsPrizm10Product                                  three.o
IsPrizm230Product                                 three.o
IsPrizmProductWith20Char                          three.o
IsSoftRTCProduct                                  three.o
IsTextProduct                                     three.o
K20LCD_WRITE                                      two.o
Key0                                              three.o
Key1                                              three.o
Key2                                              three.o
Key3                                              three.o
Key4                                              three.o
Key5                                              three.o
Key6                                              three.o
Key7                                              three.o
Key8                                              three.o
Key9                                              three.o
KeyA                                              three.o
KeyB                                              three.o
KeyBottomX                                        three.o
KeyBottomY                                        three.o
KeyBuffer                                         three.o
KeyC                                              three.o
KeyD                                              three.o
KeyE                                              three.o
KeyF                                              three.o
KeyFound                                          three.o
KeyPending                                        three.o
KeyPressed                                        three.o
KeyPressed1                                       three.o
KeyScan                                           three.o
KeyTask                                           three.o
KeyTopX                                           three.o
KeyTopY                                           three.o
KeyX                                              three.o
KeyY                                              three.o
Key_Buffer_Empty                                  three.o
Key_ptr                                           three.o
Keyaction                                         three.o
Keypad                                            three.o
KickStart1                                        three.o
KickStart2                                        three.o
LCD_Buff                                          three.o
                                                  two.o
LED_0                                             three.o
LED_1                                             three.o
LED_2                                             three.o
LED_3                                             three.o
LO                                                three.o
LOG_DATA                                          three.o
LP_Called                                         three.o
LP_GroupNumber                                    three.o
LP_SerialPort                                     three.o
LTI_OFF                                           three.o
LTI_ON                                            three.o
Lable                                             three.o
LadderScanTime                                    three.o
Ladder_Present                                    three.o
Ladder_Size_ptr                                   three.o
Ladder_Start_ptr                                  three.o
Languagechange                                    three.o
LastAlarmColumn                                   three.o
LastHistAlarmColumn                               three.o
LastMainScan                                      three.o
LastScreen                                        three.o
LedRow                                            three.o
LedState_COM1                                     three.o
LedState_COM2                                     three.o
LedState_ERROR                                    three.o
LedState_OP1                                      three.o
LedState_OP2                                      three.o
LedState_OP3                                      three.o
LedState_OP4                                      three.o
LedState_OP5                                      three.o
LedState_OP6                                      three.o
LedState_RED                                      three.o
LedState_RUN                                      three.o
Length1Received                                   three.o
Length2Received                                   77702a.o
                                                  three.o
Limit_Value                                       three.o
Line                                              three.o
LinePattern                                       three.o
LinePosTag                                        three.o
Link                                              three.o
ListOfBlocksPort1                                 three.o
ListOfBlocksPort2                                 three.o
ListOfBlocksPort3                                 three.o
ListOfBlocksPort4                                 three.o
ListOfBlocksPort5                                 three.o
ListOfBlocksPort6                                 three.o
ListOfBlocksPort7                                 three.o
ListOfBlocksPort8                                 three.o
LoAddr                                            three.o
LoadBackupMemory                                  three.o
LoadModbusFirstAddr1                              three.o
LoadModbusFirstAddr2                              three.o
LoadNodeStatus                                    three.o
LoadNodeStatus1                                   three.o
LoadPopupScreen                                   three.o
LoadTagPara                                       three.o
LocalDel                                          three.o
LocalKeyFound                                     three.o
LocalPressTaskBytes                               three.o
LocalPressedTaskBytes                             three.o
LocalRelease                                      three.o
LocalReleasedTaskBytes                            three.o
LocalTempPointer                                  three.o
Local_temp_hi                                     three.o
Localdel                                          two.o
LogDataPrintBuff                                  three.o
LogErrorEventHistory                              three.o
LogInfo                                           three.o
LogON                                             three.o
LogPrint1                                         three.o
LogPrint2                                         three.o
Logdata_ptr                                       three.o
LoggerPointer                                     three.o
Loggroups                                         three.o
LowHigh                                           three.o
LowLimit                                          three.o
MELSEC_Port1_Info                                 three.o
MELSEC_Port2_Info                                 three.o
MPIBlockRead                                      three.o
MPIonComm1                                        three.o
MSG                                               Product_Info.o
                                                  77702a.o
                                                  77701a.o
                                                  three.o
MSG_USB                                           Product_Info.o
                                                  three.o
MW_Reg_Offset                                     three.o
MW_Reg_OffsetTimerInt                             three.o
MY_atol                                           three.o
MainloopScanTime                                  three.o
MaxPLCBlocks_Read1                                three.o
MaxPLCBlocks_Read2                                three.o
MaxPLCBlocks_Write1                               three.o
MaxPLCBlocks_Write2                               three.o
MaxValue                                          three.o
MaxValuefloat                                     three.o
Max_BGTaskPtr_G1                                  three.o
Max_BGTaskPtr_G2                                  three.o
Max_BGTaskPtr_G3                                  three.o
Max_BGTaskPtr_W1                                  three.o
Max_BGTaskPtr_W2                                  three.o
Max_BGTaskPtr_W3                                  three.o
Max_RecCntGlob1                                   three.o
Max_RecCntGlob2                                   three.o
Max_RecCntGlob3                                   three.o
Max_RecCntWhile1                                  three.o
Max_RecCntWhile2                                  three.o
Max_RecCntWhile3                                  three.o
MediumFlash                                       three.o
Mem                                               Product_Info.o
MemInitialization                                 three.o
MemRead                                           two.o
MemWrite                                          two.o
Micro_RTC_ANS_DAY                                 three.o
Micro_RTC_ANS_HOUR                                three.o
Micro_RTC_ANS_MINUTE                              three.o
Micro_RTC_ANS_MONTH                               three.o
Micro_RTC_ANS_SECOND                              three.o
Micro_RTC_ANS_YEAR                                three.o
Micro_RTC_BCDToInt                                three.o
Micro_RTC_Cal_Total_Days                          three.o
Micro_RTC_CallDelay                               three.o
Micro_RTC_DAY                                     three.o
Micro_RTC_FAIL                                    three.o
Micro_RTC_HOUR                                    three.o
Micro_RTC_Init                                    three.o
Micro_RTC_IntToBCD                                three.o
Micro_RTC_MINUTE                                  three.o
Micro_RTC_MONTH                                   three.o
Micro_RTC_OP_DAY                                  three.o
Micro_RTC_OP_FAIL                                 three.o
Micro_RTC_OP_HOUR                                 three.o
Micro_RTC_OP_MINUTE                               three.o
Micro_RTC_OP_MONTH                                three.o
Micro_RTC_OP_SECOND                               three.o
Micro_RTC_OP_YEAR                                 three.o
Micro_RTC_RTC_Count_Zero                          three.o
Micro_RTC_RTC_Operation                           three.o
Micro_RTC_RTC_Read                                three.o
Micro_RTC_RTC_Set                                 three.o
Micro_RTC_RTC_op_Count_Zero                       three.o
Micro_RTC_Read_Day_FrHW                           three.o
Micro_RTC_Read_Day_Week_FrHW                      three.o
Micro_RTC_Read_Hr_FrHW                            three.o
Micro_RTC_Read_Min_FrHW                           three.o
Micro_RTC_Read_Month_FrHW                         three.o
Micro_RTC_Read_Sec_FrHW                           three.o
Micro_RTC_Read_Year_FrHW                          three.o
Micro_RTC_SECOND                                  three.o
Micro_RTC_UpdateDayOfWeek                         three.o
Micro_RTC_Valid_Date                              three.o
Micro_RTC_YEAR                                    three.o
Micro_RTC_count                                   three.o
Micro_RTC_op_count                                three.o
Micro_RTC_read_Data                               three.o
Micro_RTC_read_bit                                three.o
Micro_RTC_write_Data                              three.o
Micro_RTC_write_bit                               three.o
MinValue                                          three.o
MinValuefloat                                     three.o
MitMelsec_Ptr                                     three.o
ModSlaveReset1                                    three.o
ModSlaveReset2                                    three.o
ModbusCoil1                                       three.o
ModbusCoil2                                       three.o
ModbusCoil3                                       three.o
ModbusMultipleWrite1                              three.o
ModbusMultipleWrite2                              three.o
ModbusNoOfReg1                                    three.o
ModbusNoOfReg2                                    three.o
ModbusSlave1                                      three.o
ModbusSlave2                                      three.o
ModbusSlave3                                      three.o
ModelHIO                                          Product_Info.o
ModelName                                         Product_Info.o
ModelType1                                        three.o
ModelType2                                        three.o
Model_Type                                        three.o
ModhiAddr                                         three.o
ModhiAddr2                                        three.o
ModloAddr                                         three.o
ModloAddr2                                        three.o
Module_Number                                     three.o
MonitorMode1                                      77701a.o
                                                  three.o
MonitorMode2                                      77702a.o
                                                  three.o
MoveASCIILeft                                     three.o
MoveASCIIRight                                    three.o
MoveCursor                                        three.o
MoveCursorToLeft                                  three.o
MoveCursorToRight                                 three.o
MoveToLatestAlm                                   three.o
MoveToLatestHisAlm                                three.o
MoveToOldestAlm                                   three.o
MoveToOldestHisAlm                                three.o
MultiBar                                          three.o
My_Int_Max                                        three.o
My_Int_Min                                        three.o
My_Tag                                            three.o
NamePointer1                                      three.o
NeedleValue                                       three.o
Needle_length                                     three.o
Needle_pivot_x                                    three.o
Needle_pivot_y                                    three.o
NewData                                           three.o
NewFrame                                          three.o
NewFrame1                                         three.o
NewKey                                            three.o
NewPID2_Cal                                       three.o
NewScreen                                         three.o
NewTime                                           three.o
Newdraw                                           three.o
NextAlarm                                         three.o
NextAlarmColumn                                   three.o
NextHistAlarm                                     three.o
NextHistAlarmColumn                               three.o
NextKey                                           three.o
NoBitmap                                          three.o
NoOfBits1                                         three.o
NoOfBits2                                         three.o
NoOfBlocks                                        three.o
NoOfBytes                                         three.o
NoOfDigit                                         three.o
NoOfDisplayChar                                   three.o
NoOfNodes                                         three.o
NoOfReg4                                          three.o
NoSend1                                           77701a.o
                                                  three.o
NoSend2                                           77702a.o
                                                  three.o
No_of_bytes                                       three.o
No_of_dataentries                                 three.o
Node                                              three.o
NodeAddCount1                                     three.o
NodeAddCount2                                     three.o
NodeAttached1                                     77701a.o
                                                  three.o
NodeAttached2                                     77702a.o
                                                  three.o
NodeAttached3                                     three.o
NodeIntr                                          three.o
NodeIntrPort1                                     three.o
NodeIntrPort1CMDQ                                 three.o
NodeIsFailed1                                     three.o
NodeIsFailed2                                     three.o
NodePointer                                       three.o
NodePresent                                       three.o
NodePresentOnPort1                                three.o
NodePresentOnPort2                                three.o
NodeType                                          three.o
Node_addr                                         three.o
NodesForExp                                       three.o
NodesForPort1                                     three.o
NodesForPort2                                     three.o
NotAccept2                                        three.o
NumOfBlocks                                       three.o
NumOfBlocksPort1                                  three.o
NumOfBytes                                        three.o
NumOfBytesPort1                                   three.o
NumericASCII_Dec                                  three.o
NumericASCII_Int                                  three.o
NumericASCII_decimal_pt                           three.o
NumericASCII_no_of_digit                          three.o
ObjCnt                                            three.o
ObjNoRedraw                                       three.o
ObjPtr                                            three.o
One_Read                                          three.o
Onesec                                            three.o
OutputCoil                                        three.o
OverRunError1                                     three.o
OverRunError2                                     three.o
PID2_ACT                                          three.o
PID2_Check_Absolute                               three.o
PID2_Check_Graph                                  three.o
PID2_DB                                           three.o
PID2_E                                            three.o
PID2_E1                                           three.o
PID2_E2                                           three.o
PID2_EXECUTE                                      three.o
PID2_First_Scan                                   three.o
PID2_IC                                           three.o
PID2_INIT                                         three.o
PID2_KD                                           three.o
PID2_KP                                           three.o
PID2_LastM                                        three.o
PID2_M                                            three.o
PID2_OFF                                          three.o
PID2_ON                                           three.o
PID2_OPR_A                                        three.o
PID2_OPR_B                                        three.o
PID2_OPR_C                                        three.o
PID2_P                                            three.o
PID2_READ_INPUT                                   three.o
PID2_RT                                           three.o
PID2_S                                            three.o
PID2_ST                                           three.o
PID2_ST_VAR                                       three.o
PID2_Sample                                       three.o
PID2_UPDATE_OUTPUT                                three.o
PID_Blocks                                        three.o
PID_CALL2                                         three.o
PID_Check_Absolute                                three.o
PID_Check_Graph                                   three.o
PID_E1                                            three.o
PID_EXECUTE                                       three.o
PID_Enablebit                                     three.o
PID_First_Scan                                    three.o
PID_G                                             three.o
PID_INIT                                          three.o
PID_Ir                                            three.o
PID_KDH                                           three.o
PID_KDL                                           three.o
PID_KIH                                           three.o
PID_KIL                                           three.o
PID_KP                                            three.o
PID_L                                             three.o
PID_M                                             three.o
PID_OFF                                           three.o
PID_ON                                            three.o
PID_OPR_A                                         three.o
PID_OPR_B                                         three.o
PID_OPR_C                                         three.o
PID_P                                             three.o
PID_P1                                            three.o
PID_P2                                            three.o
PID_READ_INPUT                                    three.o
PID_Result                                        three.o
PID_S                                             three.o
PID_Sample                                        three.o
PID_UPDATE_OUTPUT                                 three.o
PID_ferror                                        three.o
PIT1_interrupt                                    three.o
PITChannel_1                                      MplcISR.o
                                                  vectors.o
PITChannel_1new                                   three.o
                                                  MplcISR.o
PLC1ByteReceived                                  77701a.o
PLC1Tag                                           three.o
PLC1trmit                                         77701a.o
PLC2ByteReceived                                  77702a.o
                                                  three.o
PLC2Tag                                           three.o
PLC2trmit                                         77702a.o
                                                  three.o
PLC3Tag                                           three.o
PLC4Tag                                           three.o
PLCBlockSize1                                     three.o
PLCBlockSize2                                     three.o
PLCCode                                           three.o
PLCModel                                          three.o
PLCOnPort1                                        three.o
PLCOnPort2                                        three.o
PLCOnPort3                                        three.o
PLCRegAddr_num                                    three.o
PLCRegAddr_num2                                   three.o
PLCTag                                            three.o
PLCTagAddress1                                    three.o
PLCTagAddress2                                    three.o
PLCTagError                                       three.o
PLCTagPresent                                     three.o
PLC_MODE                                          three.o
PORTE_PinDetect                                   MplcISR.o
                                                  vectors.o
PRODUCT_NAME                                      Product_Info.o
                                                  three.o
PSTR_Bit                                          three.o
PWM_Count1                                        three.o
PWM_Count2                                        three.o
PWM_Handler1                                      three.o
PWM_Handler2                                      three.o
P_Screen_no                                       three.o
PacketSend                                        three.o
PacketSize                                        three.o
PageSel                                           two.o
PaperMove                                         three.o
Parity1                                           three.o
Parity2                                           three.o
Parity_Addr_local_buff                            three.o
Parity_Addr_local_buff2                           three.o
Parity_update1                                    three.o
Parity_update2                                    three.o
PassBuff                                          three.o
PasswordEntry                                     three.o
PasswordScr                                       three.o
Password_Keypad                                   three.o
Password_Scr_Ptr                                  three.o
Plc1Comm                                          three.o
Plc1Dat1Hi                                        three.o
Plc1Dat1Lo                                        three.o
Plc1Dat2Hi                                        three.o
Plc1Dat2Lo                                        three.o
Plc1Present                                       77701a.o
                                                  three.o
Plc1RdHeap                                        77701a.o
                                                  three.o
Plc1WrHeap                                        77701a.o
Plc2Comm                                          three.o
Plc2Present                                       77702a.o
                                                  three.o
Plc2RdHeap                                        77702a.o
                                                  three.o
Plc2WrHeap                                        77702a.o
Plc3Present                                       three.o
Plc4Present                                       three.o
PlcAttachDone1                                    three.o
PlcAttachDone2                                    three.o
PlcAttachInProcess1                               three.o
PlcAttachInProcess2                               three.o
PlcAttachRequire1                                 three.o
PlcAttachRequire2                                 three.o
PlcComm1Check                                     77701a.o
PlcComm2Check                                     77702a.o
PlcCommIni1                                       77701a.o
PlcCommIni2                                       77702a.o
PlcDat1Hi                                         three.o
PlcDat1Lo                                         three.o
PlcDat2Hi                                         three.o
PlcDat2Lo                                         three.o
PlcMode1                                          three.o
PlcMode2                                          three.o
PlotReverse                                       three.o
PopScreenFound                                    three.o
Popup                                             three.o
PopupBotx                                         three.o
PopupBoty                                         three.o
PopupCnt                                          three.o
PopupDataEntry                                    three.o
PopupKeypad                                       three.o
PopupScreen                                       three.o
PopupTopx                                         three.o
PopupTopy                                         three.o
Port                                              three.o
Port1BlockCount                                   three.o
Port1Count                                        three.o
Port1DummyCommunication                           three.o
Port1ErrorStatus                                  three.o
Port1Intr                                         three.o
Port1IntrCMDQ                                     three.o
Port1IsSlave                                      three.o
Port1ModbusFirstAddr                              three.o
Port1ModbusFirstRegType                           three.o
Port1NodeAddr                                     three.o
Port1Plc                                          three.o
Port1PlcModel                                     three.o
Port1PlcRegLen                                    three.o
Port1Var                                          three.o
Port1Var4                                         three.o
Port1Var5                                         three.o
Port2BlockCount                                   three.o
Port2DummyCommunication                           three.o
Port2ErrorStatus                                  three.o
Port2IsSlave                                      three.o
Port2ModbusFirstAddr                              three.o
Port2ModbusFirstRegType                           three.o
Port2NodeAddr                                     three.o
Port2Plc                                          three.o
Port2PlcModel                                     three.o
Port2PlcRegLen                                    three.o
Port3BlockCount                                   three.o
Port3ErrorStatus                                  three.o
Port3IsSlave                                      three.o
Port3Plc                                          three.o
Port4BlockCount                                   three.o
Port4GlobalBlockCount                             three.o
Port4IsSlave                                      three.o
Port5BlockCount                                   three.o
Port5GlobalBlockCount                             three.o
Port6BlockCount                                   three.o
Port6GlobalBlockCount                             three.o
Port7BlockCount                                   three.o
Port7GlobalBlockCount                             three.o
Port8BlockCount                                   three.o
Port8GlobalBlockCount                             three.o
PortChecking                                      three.o
PortIntr                                          three.o
PortTag                                           three.o
PowerDwnAppl_Info                                 three.o
                                                  two.o
PowerDwnsave_Error                                three.o
PowerOnAttach1                                    three.o
PowerOnAttach2                                    three.o
PowerOnGlobal1                                    three.o
PowerOnGlobal2                                    three.o
PowerOnGlobal3                                    three.o
PowerOnTask                                       three.o
Power_On_Flag                                     three.o
Powr_Down_Mode                                    two.o
Powr_Down_Mode_FHWT                               two.o
PpupDEOn                                          three.o
Prefetch_Handler_message                          two.o
Prefix2                                           three.o
PreparePowerDownSector                            three.o
PresentKey                                        three.o
PressDun                                          three.o
PressEvent                                        three.o
PressedEvent                                      three.o
PrevAlarmColumn                                   three.o
PrevBlockSizePort1                                three.o
PrevBlockSizePort2                                three.o
PrevCharState                                     three.o
PrevDelayTrans                                    three.o
PrevFrameLength1                                  three.o
PrevFrameLength2                                  three.o
PrevHistAlarmColumn                               three.o
PrevKey                                           three.o
PrevKey0                                          three.o
PrevKey1                                          three.o
PrevKey2                                          three.o
PrevKey3                                          three.o
PrevNodeAddress1                                  three.o
PrevNodeAddress2                                  three.o
PrevNodeIntr                                      three.o
PrevNodeIntrPort1                                 three.o
PrevPlcError                                      three.o
PrevPlcState                                      three.o
PrevRateVal                                       three.o
PrevRecFrameLength1                               three.o
PrevRecFrameLength2                               three.o
PrevRxState1                                      three.o
PrevRxState2                                      three.o
PrevScrSvrTime                                    two.o
PrevSignData                                      three.o
PrevState                                         three.o
PrevTransmitEnableBit1                            ASCIIComm.o
PrevTransmitEnableBit2                            ASCIIComm.o
PrevWaitTillFlag                                  three.o
PrevXdb                                           three.o
PrevYdb                                           three.o
Prev_PID_Enablebit                                three.o
Prev_PSTR                                         three.o
Prev_PSTR_Bit                                     three.o
Prevalarmpos                                      three.o
Prevday                                           three.o
Prevhr                                            three.o
PreviousAlarm                                     three.o
PreviousHistAlarm                                 three.o
PreviousScreen                                    three.o
Previous_PLC_Mode                                 three.o
Prevmin                                           three.o
Prevmonth                                         three.o
Prevsec                                           three.o
Prevyear                                          three.o
Print                                             three.o
PrintAlarm                                        three.o
PrintBuff                                         three.o
PrintByte                                         three.o
PrintData                                         three.o
PrintDone                                         three.o
PrintInt                                          three.o
PrintLogData                                      three.o
PrintShort                                        three.o
PrintStatus                                       three.o
Printing1                                         three.o
Printing2                                         three.o
PrintingData1                                     three.o
PrintingData2                                     three.o
Printing_Pending                                  three.o
                                                  two.o
PrizmCoil                                         three.o
PrizmCoil2                                        three.o
PrizmPORT                                         three.o
PrizmPORT2                                        three.o
PrizmPort1Addr                                    three.o
PrizmPort2Addr                                    three.o
PrizmPort4Addr                                    three.o
PrizmSizeCode                                     three.o
PrizmSizeCode2                                    three.o
PrizmTagAddress                                   three.o
PrizmTagAddress2                                  three.o
PrizmTagType1                                     three.o
PrizmTagType2                                     three.o
ProcessDummyResponse1                             three.o
ProcessDummyResponse2                             three.o
ProcessSerialIntr1                                three.o
ProcessSerialIntr2                                three.o
ProcessSerialStack                                three.o
ProductCode                                       three.o
ProductID                                         three.o
Protocol1                                         three.o
                                                  two.o
Protocol2                                         three.o
                                                  two.o
Protocol3                                         three.o
Protocol4                                         three.o
PushButton                                        three.o
PutBitmap                                         three.o
PutBitmap_AlarmText                               three.o
PutInMonitorMode1                                 three.o
PutInMonitorMode2                                 three.o
PutPixel                                          three.o
Putdata                                           three.o
RAMLogStart                                       three.o
RBR_CHECK                                         three.o
RBR_CHECK_2                                       three.o
RCntPort1                                         three.o
RCntPort2                                         three.o
RECIPETASK_Status1                                three.o
RECIPETASK_Status2                                three.o
RECIPE_TYPE1                                      three.o
RECIPE_TYPE2                                      three.o
RECTaskExec1                                      three.o
RECTaskExec2                                      three.o
RESET_FLAG                                        three.o
RESULT                                            two.o
ROW_BY                                            Product_Info.o
                                                  three.o
                                                  two.o
ROW_COM                                           Product_Info.o
                                                  three.o
                                                  two.o
ROW_UNIT                                          Product_Info.o
                                                  three.o
                                                  two.o
RTCError                                          three.o
RTCLoop                                           three.o
RTCPowerOn                                        three.o
RTCTASK_Status1                                   three.o
RTCTASK_Status2                                   three.o
RTC_Handle                                        three.o
RTC_OFFSET1                                       three.o
RTC_OFFSET2                                       three.o
RTC_Recipe_Delay_Flag                             three.o
RTC_Recipe_Delay_Port1                            three.o
RTC_Recipe_Delay_Port2                            three.o
RTC_Recipe_Delay_Port3                            three.o
RTC_Synchronization_USB                           three.o
RTC_To_PLC                                        three.o
RUN_STOP                                          three.o
RXD_After_break1                                  three.o
RXD_After_break2                                  three.o
RXD_COMTD_BIT1                                    three.o
RXD_COMTD_BIT2                                    three.o
RXD_CRCSelection1                                 three.o
RXD_CRCSelection2                                 three.o
RXD_Checksum_method1                              three.o
RXD_Checksum_method2                              three.o
RXD_ETX_ARRAY1                                    three.o
RXD_ETX_ARRAY2                                    three.o
RXD_ETX_F1                                        three.o
RXD_ETX_F2                                        three.o
RXD_NoOfCRCBytes1                                 three.o
RXD_NoOfCRCBytes2                                 three.o
RXD_NoOfETXBytes1                                 three.o
RXD_NoOfETXBytes2                                 three.o
RXD_NoOfSTXBytes1                                 three.o
RXD_NoOfSTXBytes2                                 three.o
RXD_No_Bytes1                                     three.o
RXD_No_Bytes2                                     three.o
RXD_ON_bit1                                       three.o
RXD_ON_bit2                                       three.o
RXD_STX_ARRAY1                                    three.o
RXD_STX_ARRAY2                                    three.o
RXD_STX_F1                                        three.o
RXD_STX_F2                                        three.o
RateVal                                           three.o
Rate_Counter_Count                                three.o
Rate_Counter_Elapse_Flag                          three.o
Rate_Timer_Count                                  three.o
Rate_Timer_Elapse_Flag                            three.o
RdCmdDat                                          three.o
ReadAfterTaskPtr                                  three.o
ReadAlarm                                         three.o
ReadAppErr                                        three.o
ReadAsciiData1                                    three.o
ReadAsciiData2                                    three.o
ReadBeforeTaskPtr                                 three.o
ReadBroadCastInfo1                                three.o
ReadBroadCastInfo2                                three.o
ReadBroadCastPtr                                  three.o
ReadByte                                          two.o
                                                  three.o
ReadByte1                                         three.o
ReadByteEXP                                       two.o
ReadBytePort1                                     three.o
ReadBytePort11                                    three.o
ReadCalibKeyNew                                   three.o
ReadCoil                                          three.o
ReadCommandQueue                                  three.o
ReadCommandQueuePort1                             three.o
ReadCommandRequest                                three.o
ReadCommandRequestPort1                           three.o
ReadConfirmKeys                                   three.o
ReadCrossKeyNew                                   three.o
ReadDEBuff                                        three.o
ReadDWORDEXP                                      two.o
ReadDataFromTagTable                              three.o
ReadDone1                                         three.o
ReadDone2                                         three.o
ReadEEP2By                                        Product_Info.o
ReadEntryToCommandQ1                              three.o
ReadEntryToCommandQ2                              three.o
ReadFactApplKeys                                  three.o
ReadFloatBytes                                    two.o
                                                  three.o
ReadFloatvalue                                    three.o
ReadFontByte                                      two.o
                                                  three.o
ReadFourBytes                                     two.o
                                                  three.o
ReadFourBytes1                                    three.o
ReadFourBytesCom1                                 three.o
ReadFourBytesCom2                                 three.o
ReadFourBytesPort                                 three.o
ReadFourBytesPort1                                three.o
ReadFromIntMemory                                 three.o
ReadGlobleTask                                    three.o
ReadIOConfigurationPtr                            three.o
ReadIndirectAddr                                  three.o
ReadInputs                                        three.o
ReadKey                                           three.o
ReadKeyEndLoc                                     three.o
ReadKeyLoc                                        three.o
ReadLocalKeyEndLoc                                three.o
ReadLocalKeyLoc                                   three.o
ReadLogger                                        three.o
ReadLoggerInfo                                    three.o
ReadMit_MelsecPtr                                 three.o
ReadNoOfScreens                                   three.o
ReadNodeEnd                                       three.o
ReadOneByteCom1                                   three.o
ReadOneByteCom2                                   three.o
ReadPLCCode                                       three.o
ReadPopupKeyEndLoc                                three.o
ReadPopupKeyLoc                                   three.o
ReadPowerOnTask                                   three.o
ReadPrevFloat                                     three.o
ReadProductID                                     three.o
ReadRTC                                           three.o
ReadRecipeData1                                   three.o
ReadRecipeData2                                   three.o
ReadReg                                           three.o
ReadRegText                                       three.o
ReadRequest1                                      three.o
ReadRequest2                                      three.o
ReadScrSvrInfo                                    two.o
                                                  three.o
ReadScrSvrStatus                                  three.o
ReadScrSvrTime                                    three.o
ReadScreenEndPtr                                  three.o
ReadScreenPtr                                     three.o
ReadScreenPtr2                                    three.o
ReadSerPort1Ptr                                   three.o
ReadSerPort2Ptr                                   three.o
ReadSystemParameterPtr                            three.o
ReadTagName                                       three.o
ReadTagPtr                                        three.o
ReadTagTable                                      three.o
ReadTagsInASCIIDEBuff                             three.o
ReadTchPort                                       three.o
ReadTotalAlarmBytes                               three.o
ReadTrendPara                                     three.o
ReadTsPress                                       three.o
ReadTwoBytes                                      two.o
                                                  three.o
ReadTwoBytes1                                     three.o
ReadTwoBytesCom1                                  three.o
ReadTwoBytesCom2                                  three.o
ReadTwoBytesPort1                                 three.o
ReadTwoBytesPort11                                three.o
ReadUnicodeTrendPara                              three.o
ReadWORDEXP                                       two.o
ReadWhileTaskPtr                                  three.o
ReadWrite1                                        three.o
ReadWrite2                                        three.o
Read_Appln_flash_sector                           three.o
Read_Day                                          three.o
Read_Day_FrHW                                     three.o
Read_Day_Week                                     three.o
Read_Day_Week_FrHW                                three.o
Read_HW_Specs                                     two.o
                                                  three.o
Read_Hr                                           three.o
Read_Hr_FrHW                                      three.o
Read_Min                                          three.o
Read_Min_FrHW                                     three.o
Read_Mode                                         three.o
Read_Month                                        three.o
Read_Month_FrHW                                   three.o
Read_RUNSTOP_Switch_PO                            three.o
Read_Sec                                          three.o
Read_Sec_FrHW                                     three.o
Read_SerialSettings                               three.o
Read_TS_Value                                     three.o
Read_Write                                        three.o
Read_Year                                         three.o
Read_Year_FrHW                                    three.o
Read_serial_settings                              three.o
RecCmdExec                                        three.o
RecCmdExec2                                       three.o
RecCntGlob1                                       three.o
RecCntGlob2                                       three.o
RecCntGlob3                                       three.o
RecCntWhile1                                      three.o
RecCntWhile2                                      three.o
RecCntWhile3                                      three.o
RecFrameLength1                                   77701a.o
                                                  three.o
RecFrameLength2                                   77702a.o
                                                  three.o
RecTaskCommandSent1                               three.o
RecTaskCommandSent2                               three.o
RecTaskPtr1                                       three.o
RecTaskPtr2                                       three.o
Rec_ser1                                          three.o
ReceiveBuffLength1                                77701a.o
                                                  three.o
ReceiveBuffLength2                                77702a.o
                                                  three.o
Recieve_Check                                     three.o
RecipeBlockLen1                                   three.o
RecipeBlockLen2                                   three.o
RecipeCntr1                                       three.o
RecipeCntr2                                       three.o
RecipeCount1                                      three.o
RecipeCount2                                      three.o
RecipeCount3                                      three.o
RecipeLen1                                        three.o
RecipeLen2                                        three.o
RecipeRTC1                                        three.o
RecipeRTC2                                        three.o
RecipeStr1                                        three.o
RecipeStr2                                        three.o
RecipeStrFG1                                      three.o
RecipeStrFG2                                      three.o
Rectangle                                         three.o
Redrawing                                         three.o
RefreshLed                                        three.o
RefreshStart_Logging                              three.o
RefreshStop_Logging                               three.o
RegAddr4                                          three.o
RegLenght1                                        three.o
RegLength                                         three.o
RegLength1                                        three.o
RegLength2                                        three.o
RegLengthInCMDQ1                                  three.o
RegLengthInCMDQ2                                  three.o
RegToConvBuff                                     three.o
RegToFloat                                        two.o
                                                  three.o
ReleaseEvent                                      three.o
RemovePopupScreen                                 three.o
Reset_Type                                        three.o
RespNok                                           three.o
RespNok2                                          three.o
Response1Completed                                three.o
Response2Completed                                three.o
Response_Bit1                                     three.o
Response_Bit2                                     three.o
Response_Time1                                    three.o
Response_Time2                                    three.o
Restart                                           three.o
Restart_by_Watchdog                               three.o
Restore_screen_no                                 three.o
Restore_screen_ptr                                three.o
Result                                            three.o
RetCntOverRunError1                               three.o
RetCntOverRunError1_R                             three.o
RetCntOverRunError1_W                             three.o
RetCntOverRunError2                               three.o
RetCntOverRunError2_R                             three.o
RetCntOverRunError2_W                             three.o
RetentiveSize_BW_Reg                              three.o
RetentiveSize_Counter                             three.o
RetentiveSize_Data                                three.o
RetentiveSize_Timer                               three.o
Retentive_Erase                                   three.o
Retentive_Parameter_Read                          three.o
RetryCount1                                       three.o
RetryCount2                                       three.o
Retry_Count1                                      three.o
Retry_Count2                                      three.o
ReturnFrmScrnSvr                                  three.o
Returnfrmscrsvr                                   three.o
RightRange                                        three.o
RoundRectangle                                    three.o
RtcData                                           three.o
RunTimeLogFreq                                    three.o
RxEnableBit1                                      three.o
RxEnableBit2                                      three.o
RxEnabled1                                        three.o
RxEnabled2                                        three.o
RxNoBytes1                                        three.o
RxNoBytes2                                        three.o
RxOutputBit1                                      three.o
RxOutputBit2                                      three.o
RxSSP0                                            three.o
RxStartAdd1                                       three.o
RxStartAdd2                                       three.o
S                                                 three.o
SDAasINPUT                                        three.o
SDAasOUTPUT                                       three.o
SETRST                                            three.o
SETSCLK                                           three.o
SETSDAIO                                          three.o
SLV_REN                                           three.o
SPL_PLC_TASK                                      three.o
SQRT                                              three.o
SQRT_ptr                                          three.o
STR_0                                             three.o
STR_1                                             three.o
STX_TXD_BIT1                                      three.o
STX_TXD_BIT2                                      three.o
SUBASCII                                          three.o
SWI_Handler_message                               two.o
SamplingTime_Enablebit                            three.o
Sampling_time                                     three.o
Sbits_Addr_local_buff                             three.o
Sbits_Addr_local_buff2                            three.o
Sbits_update1                                     three.o
Sbits_update2                                     three.o
Scale                                             three.o
ScnSvrbaklitOff                                   three.o
ScrPassword                                       three.o
ScrSvrAck                                         three.o
ScrSvrDelay                                       three.o
ScrSvrEnbl                                        three.o
ScrSvrTime                                        three.o
ScrSwWait_BGTask                                  three.o
ScrZeroLoaded                                     three.o
ScreenBkColor                                     three.o
ScreenBlocksFinished1                             three.o
ScreenBlocksFinished2                             three.o
ScreenChange                                      three.o
ScreenChangeFlag1                                 three.o
ScreenChangeFlag2                                 three.o
ScreenChangePort1                                 three.o
ScreenChangePort3                                 three.o
ScreenFound                                       three.o
ScreenIntrPtr                                     three.o
ScreenIntrPtrPort1                                three.o
ScreenPtr                                         three.o
ScreenPtrPort1                                    three.o
ScreenSaver                                       three.o
ScreenTobLoad                                     three.o
ScreenTobLoad_Ptr                                 three.o
ScreenType                                        three.o
                                                  two.o
Screen_Change                                     three.o
Screen_no                                         three.o
Scrn_Svr_Cntrl                                    three.o
Scrn_svr_status_update                            three.o
Scrn_svr_time_update                              three.o
Scrn_svr_update                                   three.o
ScrnsvrEnabled                                    three.o
ScrollRight                                       three.o
Scrollleft                                        three.o
Scrollright                                       three.o
ScrsvrPassword                                    three.o
Scrsvruser_Name                                   three.o
SearchAlarm                                       three.o
SearchAlarmFlashPtr                               three.o
                                                  two.o
SearchAssociatedScrPtr                            three.o
SearchBGTag                                       three.o
SearchBGTag2                                      three.o
SearchBlock1                                      three.o
SearchBlock2                                      three.o
SearchBlockPort1                                  three.o
SearchBlockPort2                                  three.o
SearchFirstTag1                                   three.o
SearchFirstTag2                                   three.o
SearchPointer                                     three.o
SearchTag                                         three.o
SearchTagName                                     three.o
SearchTagName_1                                   three.o
SendAckOnUsbPort                                  three.o
SendBGTaskCommand1                                three.o
SendBGTaskCommand2                                three.o
SendBroadCastCmd1                                 three.o
SendBroadCastCmd2                                 three.o
SendCnt1                                          77701a.o
                                                  three.o
SendCnt2                                          77702a.o
                                                  three.o
SendCntr1                                         three.o
SendCntr2                                         three.o
SendControlStatusCmd                              three.o
SendControlStatusCmd2                             three.o
SendCpuId1                                        77701a.o
                                                  three.o
SendCpuId2                                        77702a.o
                                                  three.o
SendDummyFramesOnPort1                            three.o
SendDummyFramesOnPort2                            three.o
SendEndFrame                                      three.o
SendEntryToCMDQ                                   three.o
SendFirstAttachFrame1                             77701a.o
                                                  three.o
SendFirstAttachFrame2                             77702a.o
                                                  three.o
SendFirstByte                                     three.o
SendFirstByte2                                    three.o
SendFramesToRenuDriver1                           three.o
SendFramesToRenuDriver2                           three.o
SendHistAlarmData_Frame                           three.o
SendLadder_Frame                                  three.o
SendModRespFromMainLoop1                          three.o
SendModRespFromMainLoop2                          three.o
SendModRespFromMainLoop3                          three.o
SendModRespFromMainLoop4                          three.o
SendModSlaveFrame1                                three.o
SendModSlaveFrame2                                three.o
SendModbusSlaveResponse1                          three.o
SendModbusSlaveResponse2                          three.o
SendNextAttachFrame1                              77701a.o
                                                  three.o
SendNextAttachFrame2                              77702a.o
                                                  three.o
SendPort1Command                                  three.o
SendPort2Command                                  three.o
SendPort3Command                                  three.o
SendPort4Command                                  three.o
SendReadFramesToPort1                             three.o
SendReadFramesToPort2                             three.o
SendRecipeCommand1                                three.o
SendRecipeCommand2                                three.o
SendSerialMonRespFromMainLoop1                    three.o
SendSerialMonRespFromMainLoop2                    three.o
SendWriteHeapToPort1                              three.o
SendWriteHeapToPort2                              three.o
Send_By                                           three.o
Send_Frame                                        three.o
Send_USB_Response                                 three.o
SerachDataEntryObj                                three.o
SerialFlashConfigureSPI0                          three.o
SerialFlashReadData                               three.o
SerialFlashReadStatus                             three.o
SerialFlashReset                                  three.o
SerialFlashSem                                    three.o
SerialFlashSem_Com2                               three.o
SerialFlashTest                                   three.o
SerialFlashWriteEnable                            three.o
SerialIRQ_UART0                                   three.o
                                                  MplcISR.o
SerialISR                                         MplcISR.o
                                                  vectors.o
SerialISRnew                                      three.o
Serial_Com1Int                                    three.o
Serial_Com2Int                                    three.o
Serial_FlashChk                                   three.o
Serial_FlashChk_Com2                              three.o
Serial_Flash_Nesting                              three.o
ServComPlc1                                       three.o
ServComPlc2                                       three.o
ServMaster1                                       three.o
ServMaster2                                       three.o
ServPlc1RdHeap                                    77701a.o
                                                  three.o
ServPlc1WrHeap                                    77701a.o
                                                  three.o
ServPlc2RdHeap                                    77702a.o
                                                  three.o
ServPlc2WrHeap                                    77702a.o
                                                  three.o
ServTask                                          three.o
SetDirectionPort1                                 three.o
SetDirectionPort2                                 three.o
SetTxd1                                           three.o
SetTxd2                                           three.o
Severity                                          three.o
ShiftCommandQueue                                 three.o
ShiftCommandQueuePort1                            three.o
ShiftValLeft                                      three.o
Show                                              three.o
ShowData                                          three.o
ShowFloatData                                     three.o
ShowPopup                                         three.o
ShowPopupScreen                                   three.o
ShowTime                                          three.o
SignData                                          three.o
SignFlag                                          three.o
SignKey                                           three.o
SignMathOperation                                 three.o
SignZero                                          three.o
Sign_Zero                                         three.o
Signature1                                        three.o
Signature2                                        three.o
Signed_Hex                                        three.o
SingleBorder                                      three.o
SkipGlobalTask1                                   three.o
SkipGlobalTask2                                   three.o
Slient_ETX_Time1                                  three.o
Slient_ETX_Time2                                  three.o
Slient_STX_Time1                                  three.o
Slient_STX_Time2                                  three.o
SlowFlash                                         three.o
Small_Delay                                       three.o
Soft_Reset                                        three.o
SpRegister                                        three.o
SpShPtr1                                          ASCIIComm.o
Space                                             three.o
SpecialEagleDriver1                               three.o
SpecialEagleDriver2                               three.o
SplPLC                                            three.o
SqrtPtr                                           three.o
SrcTagPort                                        three.o
StBlockAdd                                        two.o
StartAngle                                        three.o
StartChannel                                      three.o
StartComm1                                        three.o
StartComm2                                        three.o
StartCommPlc1                                     77701a.o
                                                  three.o
StartCommPlc2                                     77702a.o
                                                  three.o
StartDummComm1                                    three.o
StartDummComm2                                    three.o
StartPLCComm                                      three.o
StartRTC                                          three.o
Start_Logging                                     three.o
StartingAddr                                      three.o
StartingAddr1                                     three.o
StartingAddrPort1                                 three.o
StateChange                                       three.o
StatusByte1                                       three.o
StatusByte2                                       three.o
StopBit1                                          three.o
StopBit2                                          three.o
StopChannel                                       three.o
StopDataEntry                                     three.o
StopLogDataPrinting                               three.o
StopModeMessageDisplayed                          three.o
StopPrinting                                      three.o
Stop_Logging                                      three.o
StoreFloat                                        three.o
StoreKeyValNew                                    three.o
StoreLastScreen                                   three.o
Store_w_task                                      three.o
Stored_BGTaskPtr_W1                               three.o
Stored_BGTaskPtr_W3                               three.o
StringLength1                                     three.o
StringLength2                                     three.o
Style                                             three.o
SubFromNible                                      three.o
SubFromNibleloop                                  three.o
Sub_tagB_tagA                                     three.o
Subtract_BCD                                      three.o
SwapStr                                           three.o
Swap_tagA_tagB                                    three.o
SwitchDirection1                                  three.o
SwitchDirection2                                  three.o
SwitchLCDMemory                                   three.o
SwitchNxt                                         three.o
SwitchNxtDataEntry                                three.o
SwitchPrevDataEntry                               three.o
SwitchPrev_1                                      three.o
Switch_Dir                                        three.o
Sys_IBM                                           three.o
Sys_PLC1                                          three.o
Sys_PLC2                                          three.o
Sys_Print1                                        three.o
Sys_Print2                                        three.o
Sys_Reg_Arry                                      three.o
Sys_Setup_Menu                                    three.o
SystemCoil                                        three.o
SystemInformation                                 three.o
SystemParameterPtr                                three.o
                                                  77702a.o
                                                  77701a.o
                                                  two.o
T10TC                                             three.o
T10msTC                                           three.o
T20msTC                                           three.o
TCH_DETECT                                        three.o
TCH_GPIO                                          three.o
TCHdata                                           three.o
TOUCH_INT                                         three.o
                                                  MplcISR.o
TSCalibrationNew                                  three.o
TXDClearCount1                                    three.o
TXDClearCount2                                    three.o
TXDClearFlag1                                     three.o
TXDClearFlag2                                     three.o
TXD_COMTD_BIT1                                    three.o
TXD_COMTD_BIT2                                    three.o
TXD_CRCSelection1                                 three.o
TXD_CRCSelection2                                 three.o
TXD_Checksum_method1                              three.o
TXD_Checksum_method2                              three.o
TXD_ETX_ARRAY1                                    three.o
TXD_ETX_ARRAY2                                    three.o
TXD_ETX_F1                                        three.o
TXD_ETX_F2                                        three.o
TXD_NoOfCRCBytes1                                 three.o
TXD_NoOfCRCBytes2                                 three.o
TXD_NoOfETXBytes1                                 three.o
TXD_NoOfETXBytes2                                 three.o
TXD_NoOfSTXBytes1                                 three.o
TXD_NoOfSTXBytes2                                 three.o
TXD_STX_ARRAY1                                    three.o
TXD_STX_ARRAY2                                    three.o
TXD_STX_F1                                        three.o
TXD_STX_F2                                        three.o
TXFrameEnd1                                       77701a.o
                                                  three.o
TXFrameEnd2                                       77702a.o
                                                  three.o
TagCount1                                         three.o
TagCount2                                         three.o
TagError                                          three.o
TagErrorFlag1                                     three.o
TagErrorFlag2                                     three.o
TagNamePointer1                                   three.o
TagNo                                             three.o
TagPresent                                        three.o
TagStatus1                                        three.o
TagStatus2                                        three.o
TagStatus3                                        three.o
TagTable1                                         three.o
TagTable2                                         three.o
TagTable3                                         three.o
TagTable4                                         three.o
TagTable5                                         three.o
TagTable6                                         three.o
TagTable7                                         three.o
TagTable8                                         three.o
TagTableUpdated1                                  three.o
TagTableUpdated2                                  three.o
TagTableUpdated3                                  three.o
TagType                                           three.o
Tag_count                                         three.o
Tag_no                                            three.o
TaskIgnore                                        three.o
TaskIgnore1                                       three.o
TaskIgnore2                                       three.o
TaskIgnore3                                       three.o
Task_Load                                         three.o
TchCMD                                            three.o
TchIntrEnable                                     three.o
TchPtr                                            three.o
TchPtrA                                           three.o
TchScan                                           three.o
TchScanNew                                        three.o
TchTable                                          three.o
Tcount                                            three.o
Temp                                              three.o
TempCount                                         three.o
TempCount1                                        three.o
TempCount1Port1                                   three.o
TempCountPort1                                    three.o
TempFlag1                                         three.o
TempFlag2                                         three.o
TempIntrPort1                                     three.o
TempPtr1                                          ASCIIComm.o
TempRecipe                                        three.o
TempRxAddr1                                       three.o
TempRxAddr2                                       three.o
TempTxAddr1                                       three.o
TempTxAddr2                                       three.o
TempTxBytes1                                      three.o
Temp_Float_1                                      three.o
Temp_Float_2                                      three.o
Temp_HAread                                       three.o
Temp_Value_RXD_NoOfETXBytes1                      three.o
Temp_Value_RXD_NoOfETXBytes2                      three.o
Text                                              three.o
TextBgColor                                       three.o
TextColor                                         three.o
TextFont                                          three.o
TextWizard                                        three.o
ThreeHalfDel1                                     three.o
ThreeHalfDel2                                     three.o
Time                                              three.o
Time5msec                                         three.o
TimeFlag                                          three.o
TimeOut1                                          77701a.o
                                                  three.o
TimeOut2                                          77702a.o
                                                  three.o
TimeOutCount                                      three.o
                                                  two.o
TimeOutFlag                                       three.o
                                                  two.o
TimeSpan1                                         three.o
Timer1DelayHandler                                three.o
Timer2DelayHandler                                three.o
Timer2Disable                                     three.o
Timer3DelayHandler                                three.o
TimerCoil                                         three.o
TimerCounterFlag                                  three.o
TimerDelayHandler                                 three.o
TimerRegister                                     three.o
                                                  two.o
TmoPort1                                          three.o
TmoPort2                                          three.o
ToggleLCDMemory                                   three.o
ToggleLED                                         three.o
ToggleVar                                         three.o
ToggleWdi                                         three.o
                                                  two.o
Toggle_bit                                        three.o
TotalNoAlmInWindow                                three.o
TotalNoHisAlmInWindow                             three.o
TotalNoOfClms                                     three.o
TotalStringLength                                 three.o
Total_CRC                                         three.o
Total_Data_Download_Frames                        three.o
Total_send_usb                                    three.o
Totaliser_Count                                   three.o
TouchScreenLoopBack                               three.o
Touch_Cal                                         three.o
Touch_CalculateLCDPoints                          three.o
Touch_Fall                                        three.o
Touch_Rise                                        three.o
TransmitEnableBit1                                ASCIIComm.o
TransmitEnableBit2                                ASCIIComm.o
Transmit_Timeout_Flag                             three.o
TrendLable                                        three.o
TrendObjCnt                                       three.o
TrendScroll                                       three.o
Trend_Window                                      three.o
Trendclr                                          three.o
TsRaw                                             three.o
TurnBitOff                                        three.o
TurnBitOn                                         three.o
TurnOffLed                                        three.o
TurnOnLed                                         three.o
Turn_bit_off                                      three.o
Turn_bit_on                                       three.o
Turn_off_All_Outputs                              three.o
TxNoBytes1                                        three.o
TxNoBytes2                                        three.o
TxOutputBit1                                      three.o
TxOutputBit2                                      three.o
TxSSP0                                            three.o
TxSem                                             three.o
TxSem_Com2                                        three.o
TxStartAdd1                                       three.o
TxStartAdd2                                       three.o
TypeOfTag                                         three.o
UART0SendArry                                     three.o
UART3Handler                                      three.o
UART_REC_DATA                                     three.o
USBDownloadCheck                                  three.o
USB_Configure                                     three.o
USB_Connect                                       three.o
USB_DisableEP                                     three.o
USB_EPTx                                          three.o
USB_EnableEP                                      three.o
USB_EnableEp4Ep5                                  three.o
USB_GetFrame                                      three.o
USB_Init                                          three.o
USB_MONITOR_FLAG                                  three.o
USB_Reset                                         three.o
USB_ResetEP                                       three.o
USB_SetAddress                                    three.o
USB_StallEP                                       three.o
USB_Suspend                                       three.o
USB_TIMEOUT_FLAG                                  three.o
USB_WriteEP                                       three.o
Undefined_Handler_message                         two.o
UnicodeASCIIKeypad                                three.o
UnicodeAnalogMeter                                three.o
UnicodeBitButton                                  three.o
UnicodeBitLamp                                    three.o
UnicodeCustomKeypad                               three.o
UnicodeHisttrend_Window                           three.o
UnicodeKeypad                                     three.o
UnicodeMultibar                                   three.o
UnicodeText                                       three.o
UnicodeTrendLable                                 three.o
UnicodeTrend_Window                               three.o
UnicodeWordButton                                 three.o
UnicodeWordLamp                                   three.o
UnsignedLongToHEX                                 three.o
UnsignedMathOperation                             three.o
UpdateBGStatusBit1                                three.o
UpdateBGStatusBit2                                three.o
UpdateBatteryStatus                               three.o
UpdateBlockList                                   three.o
UpdateCommunicationStatusTags                     three.o
UpdateDayOfWeek                                   three.o
UpdateHistCounter                                 three.o
UpdateNodeErrorStatus1                            three.o
UpdateNodeErrorStatus2                            three.o
UpdateNodeStatus1                                 three.o
UpdateNodeStatus2                                 three.o
UpdateNodeStatusPort1                             three.o
UpdateNodeStatusPort2                             three.o
UpdateOutputs                                     three.o
UpdateReadCommandQ1                               77701a.o
                                                  three.o
UpdateReadCommandQ2                               77702a.o
                                                  three.o
UpdateRecipeData1                                 77701a.o
                                                  three.o
UpdateRecipeData2                                 77702a.o
                                                  three.o
UpdateRecipePrizmBlock1                           three.o
UpdateRecipePrizmBlock2                           three.o
UpdateScr                                         three.o
UpdateScrSvrInfo                                  two.o
                                                  three.o
UpdateScrSvrSysReg                                two.o
                                                  three.o
UpdateShowHide                                    three.o
UpdateTab                                         three.o
UpdateTableCnt1                                   three.o
UpdateTableCnt2                                   three.o
UpdateTag1Data                                    77701a.o
                                                  three.o
UpdateTag2Data                                    77702a.o
                                                  three.o
UpdateTagError1                                   three.o
UpdateTagError2                                   three.o
UpdateTagErrorCRC1                                three.o
UpdateTagErrorCRC2                                three.o
UpdateTagErrorStatus1                             three.o
UpdateTagErrorStatus2                             three.o
UpdateTagStatus1                                  three.o
UpdateTagStatus2                                  three.o
Update_BGTask                                     three.o
Update_MW_Write_Bit                               three.o
Update_MW_Write_Bit_TimerInt                      three.o
Update_serial1                                    three.o
Update_serial2                                    three.o
Update_serial_settings                            three.o
Update_serial_settings2                           three.o
UpdatingBlockList                                 three.o
UploadAckRec                                      three.o
UploadBuffer                                      three.o
UploadByte                                        three.o
UploadHistAlarmData                               three.o
UploadMode                                        three.o
UploadPort                                        three.o
UploadTimeOut                                     three.o
Upload_Application                                three.o
Upload_FP4030_Buff                                three.o
UpperCase                                         three.o
UsbDownloadRestartFlag                            three.o
UsbEp0IntHandler                                  three.o
UsbGetData                                        three.o
UsbHandler                                        three.o
UsbRestart                                        three.o
Usb_Frame_No                                      three.o
Usb_Total_Frame                                   three.o
ValKey                                            three.o
ValKeyBuz                                         two.o
                                                  three.o
ValidCheckOk                                      three.o
ValidData                                         three.o
ValidDataArr                                      three.o
ValidScreen                                       three.o
Value_Interframe_Delay1                           three.o
Value_Interframe_Delay2                           three.o
Value_RXD_After_break1                            three.o
Value_RXD_After_break2                            three.o
Value_Response_Bit1                               three.o
Value_Response_Bit2                               three.o
Value_Response_Time1                              three.o
Value_Response_Time2                              three.o
Value_Retry_Count1                                three.o
Value_Retry_Count2                                three.o
Value_Slient_ETX_Time1                            three.o
Value_Slient_ETX_Time2                            three.o
Value_Slient_STX_Time1                            three.o
Value_Slient_STX_Time2                            three.o
VicInit                                           three.o
VicInstallExtInt                                  three.o
VicInstallIRQ                                     three.o
VicUnInstallIRQ                                   three.o
WDTHandler                                        three.o
WDTInit                                           three.o
WD_Feed_Sequence_Incomplete                       three.o
Wait                                              three.o
WaitDelay                                         three.o
WaitDelayFlag                                     three.o
WaitTillFlag                                      three.o
Wait_Till_Skip                                    three.o
Wait_Till_Task_Present                            three.o
Wait_for_PLCData                                  three.o
WhilePressedTask                                  three.o
WhileShowingTask                                  three.o
WithinOrOutside                                   three.o
WordButton                                        three.o
WordLamp                                          three.o
WordLength                                        three.o
WrCmd                                             three.o
WrCmdDat                                          three.o
WriteASCIIDEBuffToTag                             three.o
WriteAlarmToFlash                                 three.o
WriteCMDQAttachDone1                              three.o
WriteCMDQAttachDone2                              three.o
WriteCount                                        Product_Info.o
WriteCount1                                       three.o
WriteCount2                                       three.o
WriteDEBuff                                       three.o
WriteError1                                       three.o
WriteError2                                       three.o
WriteKeepAndEraseFlash                            three.o
WriteKeepMemFromFlash                             three.o
WriteOffset                                       Product_Info.o
WritePlc1                                         three.o
WritePlc2                                         three.o
WritePtr                                          three.o
WritePtrAccess                                    three.o
WriteTag                                          three.o
WriteTchPort                                      three.o
WriteToIntMemory                                  three.o
WriteXLoc                                         two.o
WriteYLoc                                         two.o
Write_LCD_Cmd                                     two.o
Write_LCD_Data                                    two.o
Write_VTOR                                        three.o
Write_val_tag                                     three.o
WritingCMDQ1                                      three.o
WritingCMDQ2                                      three.o
WritingCMDQ3                                      three.o
WritingCMDQ4                                      three.o
X                                                 three.o
X1Loc                                             two.o
X2Loc                                             two.o
XOff2                                             three.o
XVAL2                                             three.o
XW_YW_MW_ParameterPtr                             three.o
Xav2                                              three.o
Xbv2                                              three.o
Xcv2                                              three.o
Xdiff2                                            three.o
Xoffset2                                          three.o
Xpv2                                              three.o
Y                                                 three.o
Y1Loc                                             two.o
Y2Loc                                             two.o
YOff2                                             three.o
YVAL2                                             three.o
Yav2                                              three.o
Ybv2                                              three.o
Ycv2                                              three.o
Ydiff2                                            three.o
Yoffset2                                          three.o
Ypv2                                              three.o
ZeroScrnfrscrnsvr                                 three.o
__adddf3                                          D:\ToolChain3\lib\gcc\arm-none-eabi\4.5.2\libgcc.a(_arm_addsubdf3.o)
__addsf3                                          D:\ToolChain3\lib\gcc\arm-none-eabi\4.5.2\libgcc.a(_arm_addsubsf3.o)
__aeabi_cdcmpeq                                   D:\ToolChain3\lib\gcc\arm-none-eabi\4.5.2\libgcc.a(_arm_cmpdf2.o)
__aeabi_cdcmple                                   D:\ToolChain3\lib\gcc\arm-none-eabi\4.5.2\libgcc.a(_arm_cmpdf2.o)
__aeabi_cdrcmple                                  D:\ToolChain3\lib\gcc\arm-none-eabi\4.5.2\libgcc.a(_arm_cmpdf2.o)
__aeabi_cfcmpeq                                   D:\ToolChain3\lib\gcc\arm-none-eabi\4.5.2\libgcc.a(_arm_cmpsf2.o)
__aeabi_cfcmple                                   D:\ToolChain3\lib\gcc\arm-none-eabi\4.5.2\libgcc.a(_arm_cmpsf2.o)
__aeabi_cfrcmple                                  D:\ToolChain3\lib\gcc\arm-none-eabi\4.5.2\libgcc.a(_arm_cmpsf2.o)
__aeabi_d2f                                       D:\ToolChain3\lib\gcc\arm-none-eabi\4.5.2\libgcc.a(_arm_truncdfsf2.o)
                                                  D:\ToolChain3\arm-none-eabi\lib\thumb2\libm.a(lib_a-wf_exp.o)
                                                  three.o
__aeabi_d2iz                                      D:\ToolChain3\lib\gcc\arm-none-eabi\4.5.2\libgcc.a(_arm_fixdfsi.o)
                                                  D:\ToolChain3\arm-none-eabi\lib\thumb2\libm.a(lib_a-k_sin.o)
                                                  D:\ToolChain3\arm-none-eabi\lib\thumb2\libm.a(lib_a-k_rem_pio2.o)
                                                  D:\ToolChain3\arm-none-eabi\lib\thumb2\libm.a(lib_a-k_cos.o)
                                                  D:\ToolChain3\arm-none-eabi\lib\thumb2\libm.a(lib_a-e_rem_pio2.o)
                                                  three.o
__aeabi_d2uiz                                     D:\ToolChain3\lib\gcc\arm-none-eabi\4.5.2\libgcc.a(_arm_fixunsdfsi.o)
                                                  three.o
__aeabi_dadd                                      D:\ToolChain3\lib\gcc\arm-none-eabi\4.5.2\libgcc.a(_arm_addsubdf3.o)
                                                  D:\ToolChain3\arm-none-eabi\lib\thumb2\libm.a(lib_a-s_scalbn.o)
                                                  D:\ToolChain3\arm-none-eabi\lib\thumb2\libm.a(lib_a-k_sin.o)
                                                  D:\ToolChain3\arm-none-eabi\lib\thumb2\libm.a(lib_a-k_rem_pio2.o)
                                                  D:\ToolChain3\arm-none-eabi\lib\thumb2\libm.a(lib_a-k_cos.o)
                                                  D:\ToolChain3\arm-none-eabi\lib\thumb2\libm.a(lib_a-e_sqrt.o)
                                                  D:\ToolChain3\arm-none-eabi\lib\thumb2\libm.a(lib_a-e_rem_pio2.o)
                                                  D:\ToolChain3\arm-none-eabi\lib\thumb2\libm.a(lib_a-s_floor.o)
                                                  three.o
__aeabi_dcmpeq                                    D:\ToolChain3\lib\gcc\arm-none-eabi\4.5.2\libgcc.a(_arm_cmpdf2.o)
                                                  D:\ToolChain3\arm-none-eabi\lib\thumb2\libm.a(lib_a-k_rem_pio2.o)
                                                  D:\ToolChain3\arm-none-eabi\lib\thumb2\libm.a(lib_a-e_rem_pio2.o)
                                                  three.o
__aeabi_dcmpge                                    D:\ToolChain3\lib\gcc\arm-none-eabi\4.5.2\libgcc.a(_arm_cmpdf2.o)
                                                  D:\ToolChain3\arm-none-eabi\lib\thumb2\libm.a(lib_a-k_rem_pio2.o)
                                                  three.o
__aeabi_dcmpgt                                    D:\ToolChain3\lib\gcc\arm-none-eabi\4.5.2\libgcc.a(_arm_cmpdf2.o)
                                                  D:\ToolChain3\arm-none-eabi\lib\thumb2\libm.a(lib_a-s_floor.o)
                                                  three.o
__aeabi_dcmple                                    D:\ToolChain3\lib\gcc\arm-none-eabi\4.5.2\libgcc.a(_arm_cmpdf2.o)
                                                  three.o
__aeabi_dcmplt                                    D:\ToolChain3\lib\gcc\arm-none-eabi\4.5.2\libgcc.a(_arm_cmpdf2.o)
                                                  D:\ToolChain3\arm-none-eabi\lib\thumb2\libm.a(lib_a-w_sqrt.o)
                                                  three.o
__aeabi_ddiv                                      D:\ToolChain3\lib\gcc\arm-none-eabi\4.5.2\libgcc.a(_arm_muldivdf3.o)
                                                  D:\ToolChain3\arm-none-eabi\lib\thumb2\libm.a(lib_a-e_sqrt.o)
                                                  D:\ToolChain3\arm-none-eabi\lib\thumb2\libm.a(lib_a-w_sqrt.o)
                                                  three.o
__aeabi_dmul                                      D:\ToolChain3\lib\gcc\arm-none-eabi\4.5.2\libgcc.a(_arm_muldivdf3.o)
                                                  D:\ToolChain3\arm-none-eabi\lib\thumb2\libm.a(lib_a-s_scalbn.o)
                                                  D:\ToolChain3\arm-none-eabi\lib\thumb2\libm.a(lib_a-k_sin.o)
                                                  D:\ToolChain3\arm-none-eabi\lib\thumb2\libm.a(lib_a-k_rem_pio2.o)
                                                  D:\ToolChain3\arm-none-eabi\lib\thumb2\libm.a(lib_a-k_cos.o)
                                                  D:\ToolChain3\arm-none-eabi\lib\thumb2\libm.a(lib_a-e_sqrt.o)
                                                  D:\ToolChain3\arm-none-eabi\lib\thumb2\libm.a(lib_a-e_rem_pio2.o)
                                                  three.o
__aeabi_drsub                                     D:\ToolChain3\lib\gcc\arm-none-eabi\4.5.2\libgcc.a(_arm_addsubdf3.o)
__aeabi_dsub                                      D:\ToolChain3\lib\gcc\arm-none-eabi\4.5.2\libgcc.a(_arm_addsubdf3.o)
                                                  D:\ToolChain3\arm-none-eabi\lib\thumb2\libm.a(lib_a-k_sin.o)
                                                  D:\ToolChain3\arm-none-eabi\lib\thumb2\libm.a(lib_a-k_rem_pio2.o)
                                                  D:\ToolChain3\arm-none-eabi\lib\thumb2\libm.a(lib_a-k_cos.o)
                                                  D:\ToolChain3\arm-none-eabi\lib\thumb2\libm.a(lib_a-e_sqrt.o)
                                                  D:\ToolChain3\arm-none-eabi\lib\thumb2\libm.a(lib_a-e_rem_pio2.o)
                                                  D:\ToolChain3\arm-none-eabi\lib\thumb2\libm.a(lib_a-s_sin.o)
                                                  D:\ToolChain3\arm-none-eabi\lib\thumb2\libm.a(lib_a-s_modf.o)
                                                  D:\ToolChain3\arm-none-eabi\lib\thumb2\libm.a(lib_a-s_cos.o)
                                                  three.o
__aeabi_f2d                                       D:\ToolChain3\lib\gcc\arm-none-eabi\4.5.2\libgcc.a(_arm_addsubdf3.o)
                                                  D:\ToolChain3\arm-none-eabi\lib\thumb2\libm.a(lib_a-wf_exp.o)
                                                  three.o
__aeabi_f2iz                                      D:\ToolChain3\lib\gcc\arm-none-eabi\4.5.2\libgcc.a(_arm_fixsfsi.o)
                                                  D:\ToolChain3\arm-none-eabi\lib\thumb2\libm.a(lib_a-ef_exp.o)
__aeabi_fadd                                      D:\ToolChain3\lib\gcc\arm-none-eabi\4.5.2\libgcc.a(_arm_addsubsf3.o)
                                                  D:\ToolChain3\arm-none-eabi\lib\thumb2\libm.a(lib_a-ef_exp.o)
__aeabi_fcmpeq                                    D:\ToolChain3\lib\gcc\arm-none-eabi\4.5.2\libgcc.a(_arm_cmpsf2.o)
__aeabi_fcmpge                                    D:\ToolChain3\lib\gcc\arm-none-eabi\4.5.2\libgcc.a(_arm_cmpsf2.o)
__aeabi_fcmpgt                                    D:\ToolChain3\lib\gcc\arm-none-eabi\4.5.2\libgcc.a(_arm_cmpsf2.o)
                                                  D:\ToolChain3\arm-none-eabi\lib\thumb2\libm.a(lib_a-ef_exp.o)
                                                  D:\ToolChain3\arm-none-eabi\lib\thumb2\libm.a(lib_a-wf_exp.o)
__aeabi_fcmple                                    D:\ToolChain3\lib\gcc\arm-none-eabi\4.5.2\libgcc.a(_arm_cmpsf2.o)
__aeabi_fcmplt                                    D:\ToolChain3\lib\gcc\arm-none-eabi\4.5.2\libgcc.a(_arm_cmpsf2.o)
                                                  D:\ToolChain3\arm-none-eabi\lib\thumb2\libm.a(lib_a-wf_exp.o)
__aeabi_fdiv                                      D:\ToolChain3\lib\gcc\arm-none-eabi\4.5.2\libgcc.a(_arm_muldivsf3.o)
                                                  D:\ToolChain3\arm-none-eabi\lib\thumb2\libm.a(lib_a-ef_exp.o)
__aeabi_fmul                                      D:\ToolChain3\lib\gcc\arm-none-eabi\4.5.2\libgcc.a(_arm_muldivsf3.o)
                                                  D:\ToolChain3\arm-none-eabi\lib\thumb2\libm.a(lib_a-ef_exp.o)
__aeabi_frsub                                     D:\ToolChain3\lib\gcc\arm-none-eabi\4.5.2\libgcc.a(_arm_addsubsf3.o)
__aeabi_fsub                                      D:\ToolChain3\lib\gcc\arm-none-eabi\4.5.2\libgcc.a(_arm_addsubsf3.o)
                                                  D:\ToolChain3\arm-none-eabi\lib\thumb2\libm.a(lib_a-ef_exp.o)
__aeabi_i2d                                       D:\ToolChain3\lib\gcc\arm-none-eabi\4.5.2\libgcc.a(_arm_addsubdf3.o)
                                                  D:\ToolChain3\arm-none-eabi\lib\thumb2\libm.a(lib_a-k_rem_pio2.o)
                                                  D:\ToolChain3\arm-none-eabi\lib\thumb2\libm.a(lib_a-e_rem_pio2.o)
                                                  three.o
__aeabi_i2f                                       D:\ToolChain3\lib\gcc\arm-none-eabi\4.5.2\libgcc.a(_arm_addsubsf3.o)
                                                  D:\ToolChain3\arm-none-eabi\lib\thumb2\libm.a(lib_a-ef_exp.o)
__aeabi_idiv                                      D:\ToolChain3\lib\gcc\arm-none-eabi\4.5.2\libgcc.a(_divsi3.o)
                                                  D:\ToolChain3\arm-none-eabi\lib\thumb2\libm.a(lib_a-k_rem_pio2.o)
__aeabi_idiv0                                     D:\ToolChain3\lib\gcc\arm-none-eabi\4.5.2\libgcc.a(_dvmd_tls.o)
                                                  D:\ToolChain3\lib\gcc\arm-none-eabi\4.5.2\libgcc.a(_divsi3.o)
__aeabi_idivmod                                   D:\ToolChain3\lib\gcc\arm-none-eabi\4.5.2\libgcc.a(_divsi3.o)
__aeabi_l2d                                       D:\ToolChain3\lib\gcc\arm-none-eabi\4.5.2\libgcc.a(_arm_addsubdf3.o)
__aeabi_l2f                                       D:\ToolChain3\lib\gcc\arm-none-eabi\4.5.2\libgcc.a(_arm_addsubsf3.o)
__aeabi_ldiv0                                     D:\ToolChain3\lib\gcc\arm-none-eabi\4.5.2\libgcc.a(_dvmd_tls.o)
__aeabi_ui2d                                      D:\ToolChain3\lib\gcc\arm-none-eabi\4.5.2\libgcc.a(_arm_addsubdf3.o)
                                                  three.o
__aeabi_ui2f                                      D:\ToolChain3\lib\gcc\arm-none-eabi\4.5.2\libgcc.a(_arm_addsubsf3.o)
__aeabi_ul2d                                      D:\ToolChain3\lib\gcc\arm-none-eabi\4.5.2\libgcc.a(_arm_addsubdf3.o)
__aeabi_ul2f                                      D:\ToolChain3\lib\gcc\arm-none-eabi\4.5.2\libgcc.a(_arm_addsubsf3.o)
__cmpdf2                                          D:\ToolChain3\lib\gcc\arm-none-eabi\4.5.2\libgcc.a(_arm_cmpdf2.o)
__cmpsf2                                          D:\ToolChain3\lib\gcc\arm-none-eabi\4.5.2\libgcc.a(_arm_cmpsf2.o)
__cs3_stack                                       vectors.o
__divdf3                                          D:\ToolChain3\lib\gcc\arm-none-eabi\4.5.2\libgcc.a(_arm_muldivdf3.o)
__divsf3                                          D:\ToolChain3\lib\gcc\arm-none-eabi\4.5.2\libgcc.a(_arm_muldivsf3.o)
__divsi3                                          D:\ToolChain3\lib\gcc\arm-none-eabi\4.5.2\libgcc.a(_divsi3.o)
__eqdf2                                           D:\ToolChain3\lib\gcc\arm-none-eabi\4.5.2\libgcc.a(_arm_cmpdf2.o)
__eqsf2                                           D:\ToolChain3\lib\gcc\arm-none-eabi\4.5.2\libgcc.a(_arm_cmpsf2.o)
__errno                                           D:\ToolChain3\arm-none-eabi\lib\thumb2\libc.a(lib_a-errno.o)
                                                  D:\ToolChain3\arm-none-eabi\lib\thumb2\libm.a(lib_a-wf_exp.o)
                                                  D:\ToolChain3\arm-none-eabi\lib\thumb2\libm.a(lib_a-w_sqrt.o)
__extendsfdf2                                     D:\ToolChain3\lib\gcc\arm-none-eabi\4.5.2\libgcc.a(_arm_addsubdf3.o)
__fdlib_version                                   D:\ToolChain3\arm-none-eabi\lib\thumb2\libm.a(lib_a-s_lib_ver.o)
                                                  D:\ToolChain3\arm-none-eabi\lib\thumb2\libm.a(lib_a-wf_exp.o)
                                                  D:\ToolChain3\arm-none-eabi\lib\thumb2\libm.a(lib_a-w_sqrt.o)
__fixdfsi                                         D:\ToolChain3\lib\gcc\arm-none-eabi\4.5.2\libgcc.a(_arm_fixdfsi.o)
__fixsfsi                                         D:\ToolChain3\lib\gcc\arm-none-eabi\4.5.2\libgcc.a(_arm_fixsfsi.o)
__fixunsdfsi                                      D:\ToolChain3\lib\gcc\arm-none-eabi\4.5.2\libgcc.a(_arm_fixunsdfsi.o)
__floatdidf                                       D:\ToolChain3\lib\gcc\arm-none-eabi\4.5.2\libgcc.a(_arm_addsubdf3.o)
__floatdisf                                       D:\ToolChain3\lib\gcc\arm-none-eabi\4.5.2\libgcc.a(_arm_addsubsf3.o)
__floatsidf                                       D:\ToolChain3\lib\gcc\arm-none-eabi\4.5.2\libgcc.a(_arm_addsubdf3.o)
__floatsisf                                       D:\ToolChain3\lib\gcc\arm-none-eabi\4.5.2\libgcc.a(_arm_addsubsf3.o)
__floatundidf                                     D:\ToolChain3\lib\gcc\arm-none-eabi\4.5.2\libgcc.a(_arm_addsubdf3.o)
__floatundisf                                     D:\ToolChain3\lib\gcc\arm-none-eabi\4.5.2\libgcc.a(_arm_addsubsf3.o)
__floatunsidf                                     D:\ToolChain3\lib\gcc\arm-none-eabi\4.5.2\libgcc.a(_arm_addsubdf3.o)
__floatunsisf                                     D:\ToolChain3\lib\gcc\arm-none-eabi\4.5.2\libgcc.a(_arm_addsubsf3.o)
__fpclassifyd                                     D:\ToolChain3\arm-none-eabi\lib\thumb2\libm.a(lib_a-s_fpclassify.o)
                                                  D:\ToolChain3\arm-none-eabi\lib\thumb2\libm.a(lib_a-w_sqrt.o)
__gedf2                                           D:\ToolChain3\lib\gcc\arm-none-eabi\4.5.2\libgcc.a(_arm_cmpdf2.o)
__gesf2                                           D:\ToolChain3\lib\gcc\arm-none-eabi\4.5.2\libgcc.a(_arm_cmpsf2.o)
__gtdf2                                           D:\ToolChain3\lib\gcc\arm-none-eabi\4.5.2\libgcc.a(_arm_cmpdf2.o)
__gtsf2                                           D:\ToolChain3\lib\gcc\arm-none-eabi\4.5.2\libgcc.a(_arm_cmpsf2.o)
__ieee754_expf                                    D:\ToolChain3\arm-none-eabi\lib\thumb2\libm.a(lib_a-ef_exp.o)
                                                  D:\ToolChain3\arm-none-eabi\lib\thumb2\libm.a(lib_a-wf_exp.o)
__ieee754_rem_pio2                                D:\ToolChain3\arm-none-eabi\lib\thumb2\libm.a(lib_a-e_rem_pio2.o)
                                                  D:\ToolChain3\arm-none-eabi\lib\thumb2\libm.a(lib_a-s_sin.o)
                                                  D:\ToolChain3\arm-none-eabi\lib\thumb2\libm.a(lib_a-s_cos.o)
__ieee754_sqrt                                    D:\ToolChain3\arm-none-eabi\lib\thumb2\libm.a(lib_a-e_sqrt.o)
                                                  D:\ToolChain3\arm-none-eabi\lib\thumb2\libm.a(lib_a-w_sqrt.o)
__kernel_cos                                      D:\ToolChain3\arm-none-eabi\lib\thumb2\libm.a(lib_a-k_cos.o)
                                                  D:\ToolChain3\arm-none-eabi\lib\thumb2\libm.a(lib_a-s_sin.o)
                                                  D:\ToolChain3\arm-none-eabi\lib\thumb2\libm.a(lib_a-s_cos.o)
__kernel_rem_pio2                                 D:\ToolChain3\arm-none-eabi\lib\thumb2\libm.a(lib_a-k_rem_pio2.o)
                                                  D:\ToolChain3\arm-none-eabi\lib\thumb2\libm.a(lib_a-e_rem_pio2.o)
__kernel_sin                                      D:\ToolChain3\arm-none-eabi\lib\thumb2\libm.a(lib_a-k_sin.o)
                                                  D:\ToolChain3\arm-none-eabi\lib\thumb2\libm.a(lib_a-s_sin.o)
                                                  D:\ToolChain3\arm-none-eabi\lib\thumb2\libm.a(lib_a-s_cos.o)
__ledf2                                           D:\ToolChain3\lib\gcc\arm-none-eabi\4.5.2\libgcc.a(_arm_cmpdf2.o)
__lesf2                                           D:\ToolChain3\lib\gcc\arm-none-eabi\4.5.2\libgcc.a(_arm_cmpsf2.o)
__ltdf2                                           D:\ToolChain3\lib\gcc\arm-none-eabi\4.5.2\libgcc.a(_arm_cmpdf2.o)
__ltsf2                                           D:\ToolChain3\lib\gcc\arm-none-eabi\4.5.2\libgcc.a(_arm_cmpsf2.o)
__main                                            one.o
                                                  vectors.o
__muldf3                                          D:\ToolChain3\lib\gcc\arm-none-eabi\4.5.2\libgcc.a(_arm_muldivdf3.o)
__mulsf3                                          D:\ToolChain3\lib\gcc\arm-none-eabi\4.5.2\libgcc.a(_arm_muldivsf3.o)
__nedf2                                           D:\ToolChain3\lib\gcc\arm-none-eabi\4.5.2\libgcc.a(_arm_cmpdf2.o)
__nesf2                                           D:\ToolChain3\lib\gcc\arm-none-eabi\4.5.2\libgcc.a(_arm_cmpsf2.o)
__sf_fake_stderr                                  D:\ToolChain3\arm-none-eabi\lib\thumb2\libc.a(lib_a-impure.o)
__sf_fake_stdin                                   D:\ToolChain3\arm-none-eabi\lib\thumb2\libc.a(lib_a-impure.o)
__sf_fake_stdout                                  D:\ToolChain3\arm-none-eabi\lib\thumb2\libc.a(lib_a-impure.o)
__subdf3                                          D:\ToolChain3\lib\gcc\arm-none-eabi\4.5.2\libgcc.a(_arm_addsubdf3.o)
__subsf3                                          D:\ToolChain3\lib\gcc\arm-none-eabi\4.5.2\libgcc.a(_arm_addsubsf3.o)
__truncdfsf2                                      D:\ToolChain3\lib\gcc\arm-none-eabi\4.5.2\libgcc.a(_arm_truncdfsf2.o)
__vector_table                                    vectors.o
_abRxBuff                                         three.o
_bUsbActivityStatus                               three.o
_bUsbEp1TxNeeded                                  three.o
_bUsbRTCstate                                     three.o
_bUsbTxState                                      three.o
_bUsbUploadInProgress                             three.o
_bend                                             one.o
_bstart                                           one.o
_data                                             one.o
_dwUsbTxCounter                                   three.o
_dwUsbUploadAppSize                               three.o
_edata                                            one.o
_global_impure_ptr                                D:\ToolChain3\arm-none-eabi\lib\thumb2\libc.a(lib_a-impure.o)
_impure_ptr                                       D:\ToolChain3\arm-none-eabi\lib\thumb2\libc.a(lib_a-impure.o)
                                                  D:\ToolChain3\arm-none-eabi\lib\thumb2\libc.a(lib_a-errno.o)
a                                                 three.o
a_sqr                                             three.o
a_task                                            three.o
abSerialFlashBuff2                                three.o
abUsbBuffer                                       three.o
abUsbConfResp                                     three.o
abUsbDDResp                                       three.o
abUsbString0                                      three.o
abUsbString1                                      three.o
abUsbString2                                      three.o
abUsbString3                                      three.o
ackalrm                                           three.o
actualAngle                                       three.o
add_hi                                            three.o
add_lo                                            three.o
alarmchange                                       three.o
alarmdata                                         three.o
alarmno                                           three.o
alarmpos                                          three.o
alarms                                            three.o
                                                  two.o
alrmdispptr                                       three.o
                                                  two.o
altxtlen                                          three.o
animation                                         three.o
application_buffer_lst                            three.o
arry                                              three.o
aval                                              three.o
bAlarmUpload                                      three.o
bApplUploadStart                                  three.o
bDoLoop                                           three.o
bFhwtResultUpload                                 three.o
bLadderUploadStart                                three.o
bSetConfig                                        three.o
bUsbDownloadInProgress                            three.o
b_sqr                                             three.o
b_task                                            three.o
backlit                                           three.o
bcdcarry                                          three.o
bgcolor                                           three.o
                                                  two.o
bit1                                              three.o
bit_cntr                                          three.o
bit_pos                                           three.o
blanktext                                         three.o
blanktxt                                          three.o
border                                            three.o
bottomright_x                                     three.o
bottomright_y                                     three.o
brt_update                                        three.o
bval                                              three.o
byt1                                              two.o
byt_sent                                          three.o
carry                                             three.o
checkover                                         three.o
chkser1intr                                       three.o
cnt                                               three.o
cnt1                                              three.o
cntrst_update                                     three.o
coil_bit                                          three.o
col                                               three.o
comp                                              77701a.o
                                                  three.o
comp1                                             77702a.o
                                                  three.o
coord                                             three.o
copysign                                          D:\ToolChain3\arm-none-eabi\lib\thumb2\libm.a(lib_a-s_copysign.o)
                                                  D:\ToolChain3\arm-none-eabi\lib\thumb2\libm.a(lib_a-s_scalbn.o)
core_clk_khz                                      three.o
core_clk_mhz                                      three.o
cos                                               D:\ToolChain3\arm-none-eabi\lib\thumb2\libm.a(lib_a-s_cos.o)
                                                  three.o
counter                                           77701a.o
                                                  three.o
counter2                                          77702a.o
                                                  three.o
current_baud1                                     three.o
current_baud2                                     three.o
current_dbits1                                    three.o
current_dbits2                                    three.o
current_parity1                                   three.o
current_parity2                                   three.o
current_sbits1                                    three.o
current_sbits2                                    three.o
curx                                              three.o
                                                  two.o
cury                                              three.o
                                                  two.o
d                                                 three.o
da                                                three.o
dat                                               three.o
datatype                                          three.o
debug                                             three.o
debug_count                                       three.o
decimal_pt                                        three.o
default_isr                                       MplcISR.o
                                                  vectors.o
default_isrnew                                    three.o
                                                  MplcISR.o
degNeedle                                         three.o
del                                               three.o
delay                                             three.o
delay1S                                           three.o
delayd                                            three.o
digit                                             three.o
disable_irq                                       three.o
disable_timer                                     three.o
disp_animat_space                                 three.o
dispdata                                          three.o
double_test                                       three.o
draw_buff                                         two.o
                                                  three.o
dterm                                             three.o
dw256Limit                                        two.o
dwEndSector                                       two.o
dwProgramAddr                                     two.o
dwSetAddress                                      three.o
dwSizeProgramAddr                                 two.o
dwStartSector                                     two.o
dwTempGlobal                                      three.o
dx                                                three.o
dxabs                                             three.o
dy                                                three.o
dyabs                                             three.o
eeprom_page_WriteBy                               three.o
enable_irq                                        three.o
enable_timer                                      three.o
end                                               one.o
erase                                             three.o
expf                                              D:\ToolChain3\arm-none-eabi\lib\thumb2\libm.a(lib_a-wf_exp.o)
                                                  three.o
f15ptr                                            three.o
                                                  two.o
f1ptr                                             three.o
                                                  two.o
f2ptr                                             three.o
                                                  two.o
f4ptr                                             three.o
                                                  two.o
fabs                                              D:\ToolChain3\arm-none-eabi\lib\thumb2\libm.a(lib_a-s_fabs.o)
                                                  D:\ToolChain3\arm-none-eabi\lib\thumb2\libm.a(lib_a-e_rem_pio2.o)
fb_clk_init                                       three.o
fgcolor                                           three.o
                                                  two.o
fill_factor                                       three.o
fillpattern                                       three.o
finitef                                           D:\ToolChain3\arm-none-eabi\lib\thumb2\libm.a(lib_a-sf_finite.o)
                                                  D:\ToolChain3\arm-none-eabi\lib\thumb2\libm.a(lib_a-wf_exp.o)
firstalno                                         three.o
flashscrollspeed                                  three.o
flg1sec                                           three.o
floor                                             D:\ToolChain3\arm-none-eabi\lib\thumb2\libm.a(lib_a-s_floor.o)
                                                  D:\ToolChain3\arm-none-eabi\lib\thumb2\libm.a(lib_a-k_rem_pio2.o)
                                                  three.o
flt1                                              three.o
fltbarprevval                                     three.o
fltbarval                                         three.o
font                                              two.o
font1x                                            three.o
font_multi                                        three.o
font_ptr                                          three.o
font_size                                         three.o
fontlocation                                      three.o
format                                            three.o
four_a_sqr                                        three.o
four_b_sqr                                        three.o
fptr                                              three.o
gBrightness                                       three.o
gContrast                                         three.o
g_task                                            three.o
get_ptr                                           three.o
goto_nxtscreen                                    three.o
goto_prvscreen                                    three.o
goto_screen                                       three.o
groupno                                           three.o
groups                                            three.o
grpno                                             three.o
gtaskflag                                         three.o
height                                            three.o
histack                                           three.o
histalarmchange                                   three.o
histalrmdispptr                                   three.o
ho                                                three.o
hor_byte                                          three.o
hor_rad                                           three.o
hr                                                three.o
ht                                                three.o
i                                                 three.o
i1                                                three.o
iEnd4                                             three.o
iStart4                                           three.o
i_crc4                                            three.o
in_char                                           three.o
ind_addr_tag_1                                    three.o
ind_addr_tag_2                                    three.o
ind_addr_tag_3                                    three.o
ind_addr_tag_4                                    three.o
ind_addr_tag_5                                    three.o
ind_addr_tag_6                                    three.o
integer                                           three.o
isdigit                                           three.o
isspace                                           three.o
iterm                                             three.o
j                                                 three.o
k                                                 three.o
key                                               three.o
key_bytes                                         three.o
key_end_loc                                       three.o
key_loc                                           three.o
key_no                                            three.o
l                                                 three.o
language                                          three.o
last_screen_no                                    three.o
lead_zero_blank                                   three.o
line_prev_x1                                      three.o
line_prev_x2                                      three.o
line_prev_y1                                      three.o
line_prev_y2                                      three.o
loc_x                                             three.o
loc_y                                             three.o
lptmr_clear_registers                             three.o
m                                                 three.o
main                                              three.o
                                                  one.o
mask_interrupts                                   three.o
maskbyte                                          three.o
maskdata                                          three.o
matherr                                           D:\ToolChain3\arm-none-eabi\lib\thumb2\libm.a(lib_a-s_matherr.o)
                                                  D:\ToolChain3\arm-none-eabi\lib\thumb2\libm.a(lib_a-wf_exp.o)
                                                  D:\ToolChain3\arm-none-eabi\lib\thumb2\libm.a(lib_a-w_sqrt.o)
mcg_clk_hz                                        three.o
mcg_clk_khz                                       three.o
memset                                            D:\ToolChain3\arm-none-eabi\lib\thumb2\libc.a(lib_a-memset.o)
                                                  three.o
mi                                                three.o
min                                               three.o
mo                                                three.o
mode_screen_X                                     three.o
mode_screen_Y                                     three.o
modf                                              D:\ToolChain3\arm-none-eabi\lib\thumb2\libm.a(lib_a-s_modf.o)
                                                  three.o
msg                                               three.o
multiplier                                        three.o
multistateredraw                                  three.o
my_atof                                           three.o
my_modf                                           three.o
my_pow                                            three.o
n                                                 three.o
new_y                                             three.o
newdraw                                           three.o
next_prev_flag                                    three.o
no_obj                                            three.o
no_obj1                                           three.o
no_of_digit                                       three.o
no_of_languages                                   three.o
                                                  two.o
no_of_press_task                                  three.o
no_of_pressed_task                                three.o
no_of_released_task                               three.o
no_of_rows                                        three.o
                                                  two.o
no_of_tags                                        three.o
number                                            three.o
obj_bytes_0                                       three.o
obj_no                                            three.o
obj_type                                          three.o
off_hi                                            three.o
off_lo                                            three.o
off_txt_length                                    three.o
offset                                            three.o
on_txt_length                                     three.o
out_char                                          three.o
p_on_loc                                          three.o
p_task                                            three.o
pa                                                three.o
passbgcolor                                       three.o
passcount                                         three.o
passfgcolor                                       three.o
passindex                                         three.o
passobjtx                                         three.o
passobjty                                         three.o
passtx1                                           three.o
passty1                                           three.o
passverify                                        three.o
patterncolor                                      three.o
periph_clk_khz                                    three.o
pix_bit                                           three.o
pix_hi_low                                        three.o
pll_0_clk_khz                                     three.o
pll_1_clk_khz                                     three.o
pll_init                                          three.o
position                                          three.o
preset_flag                                       three.o
prev_pixel_byte                                   three.o
prev_x                                            three.o
prev_y                                            three.o
prevlanguage                                      three.o
pterm                                             three.o
readLSR1                                          three.o
readLSR2                                          three.o
read_serial_byte                                  three.o
read_serial_byte_upload                           three.o
reg_hi_hi                                         three.o
reg_hi_lo                                         three.o
reg_lo_hi                                         three.o
reg_lo_lo                                         three.o
reg_no                                            three.o
rem                                               three.o
rem1                                              three.o
row                                               three.o
rows                                              two.o
scalbn                                            D:\ToolChain3\arm-none-eabi\lib\thumb2\libm.a(lib_a-s_scalbn.o)
                                                  D:\ToolChain3\arm-none-eabi\lib\thumb2\libm.a(lib_a-k_rem_pio2.o)
screen_obj_ptr                                    three.o
screen_ptr                                        three.o
sdx                                               three.o
sdy                                               three.o
se                                                three.o
searchpointer1                                    three.o
searchpointerPort1                                three.o
sec                                               three.o
set1                                              three.o
set_irq_priority                                  three.o
show_screen                                       three.o
show_screenobj                                    three.o
sign_data                                         three.o
sign_flag                                         three.o
sin                                               D:\ToolChain3\arm-none-eabi\lib\thumb2\libm.a(lib_a-s_sin.o)
                                                  three.o
sqrt                                              D:\ToolChain3\arm-none-eabi\lib\thumb2\libm.a(lib_a-w_sqrt.o)
                                                  three.o
start_addr                                        three.o
state                                             three.o
statefound                                        three.o
stop                                              three.o
sys_flag                                          three.o
sys_flag2                                         three.o
sysinit                                           three.o
tag_bytes                                         three.o
tag_ptr                                           three.o
tagvalue                                          three.o
tagvaluefloat                                     three.o
task                                              three.o
task_byte                                         three.o
temp                                              three.o
temp1                                             three.o
temp_byt                                          three.o
temp_hi                                           three.o
temp_lo                                           three.o
temp_ptr                                          three.o
temp_reg_no                                       three.o
tempscreen                                        three.o
text_ptr                                          three.o
textlength                                        three.o
textmask                                          three.o
textmask1                                         three.o
textstyle                                         three.o
tmp_data                                          three.o
top_x                                             three.o
top_y                                             three.o
topleft_x                                         three.o
topleft_y                                         three.o
totallength                                       three.o
totbytes                                          three.o
trace_clk_init                                    three.o
tskcd_hi                                          three.o
tskcd_lo                                          three.o
two_a_sqr                                         three.o
two_b_sqr                                         three.o
tx1                                               three.o
tx2                                               three.o
ty1                                               three.o
ty2                                               three.o
uart_getchar                                      three.o
uart_getchar_present                              three.o
uart_init                                         three.o
uart_putchar                                      three.o
var1                                              three.o
var2                                              three.o
var3                                              three.o
var4                                              three.o
var5                                              three.o
ver_byte                                          three.o
ver_rad                                           three.o
vikas                                             three.o
wIndex4                                           three.o
w_task                                            three.o
wait                                              three.o
wdt_counter                                       three.o
width                                             three.o
wl                                                three.o
write_Data                                        three.o
write_serial_byte1                                three.o
                                                  77701a.o
write_serial_byte1_up                             three.o
write_serial_byte2                                three.o
                                                  77702a.o
write_serial_byte4                                three.o
write_serial_byte_upload                          three.o
wtaskflag                                         three.o
x                                                 three.o
x1                                                three.o
x1_loc                                            three.o
                                                  two.o
x1_sav                                            three.o
x2_loc                                            three.o
                                                  two.o
x2_sav                                            three.o
x_1                                               three.o
x_2                                               three.o
x_num                                             three.o
xend                                              three.o
xrad                                              three.o
xx                                                three.o
xxx                                               three.o
y                                                 three.o
y1_loc                                            three.o
                                                  two.o
y1_sav                                            three.o
y2_loc                                            three.o
                                                  two.o
y2_sav                                            three.o
y_1                                               three.o
y_2                                               three.o
y_num                                             three.o
ye                                                three.o
yend                                              three.o
yrad                                              three.o
yy                                                three.o
yyy                                               three.o
z_level                                           three.o
